---
triple:          'arm64-apple-darwin'
binary-path:     ircserv
relocations:
  - { offsetInCU: 0x3F, offset: 0x3F, size: 0x8, addend: 0x0, symName: _class_ptr, symObjAddr: 0x44DC0, symBinAddr: 0x100038000, symSize: 0x0 }
  - { offsetInCU: 0xA38B, offset: 0xA38B, size: 0x8, addend: 0x0, symName: __ZNSt3__1neB8ue170006ERKNS_14__map_iteratorINS_15__tree_iteratorINS_12__value_typeINS_12basic_stringIcNS_11char_traitsIcEENS_9allocatorIcEEEE6ClientEEPNS_11__tree_nodeISA_PvEElEEEESI_, symObjAddr: 0xF8, symBinAddr: 0x100002F68, symSize: 0x30 }
  - { offsetInCU: 0xB003, offset: 0xB003, size: 0x8, addend: 0x0, symName: __ZNSt3__14endlB8ue170006IcNS_11char_traitsIcEEEERNS_13basic_ostreamIT_T0_EES7_, symObjAddr: 0x1B4, symBinAddr: 0x100003024, symSize: 0x58 }
  - { offsetInCU: 0xB0D0, offset: 0xB0D0, size: 0x8, addend: 0x0, symName: __ZNSt3__130__libcpp_is_constant_evaluatedB8ue170006Ev, symObjAddr: 0x860, symBinAddr: 0x1000036D0, symSize: 0xC }
  - { offsetInCU: 0xB0ED, offset: 0xB0ED, size: 0x8, addend: 0x0, symName: __ZNSt3__119__libcpp_deallocateB8ue170006EPvmm, symObjAddr: 0x86C, symBinAddr: 0x1000036DC, symSize: 0x30 }
  - { offsetInCU: 0xB135, offset: 0xB135, size: 0x8, addend: 0x0, symName: __ZNSt3__127__do_deallocate_handle_sizeB8ue170006IJEEEvPvmDpT_, symObjAddr: 0x89C, symBinAddr: 0x10000370C, symSize: 0x28 }
  - { offsetInCU: 0xB173, offset: 0xB173, size: 0x8, addend: 0x0, symName: __ZNSt3__124__libcpp_operator_deleteB8ue170006IJPvEEEvDpT_, symObjAddr: 0x8C4, symBinAddr: 0x100003734, symSize: 0x24 }
  - { offsetInCU: 0xB268, offset: 0xB268, size: 0x8, addend: 0x0, symName: __ZNSt3__112__to_addressB8ue170006INS_12basic_stringIcNS_11char_traitsIcEENS_9allocatorIcEEEEEEPT_S8_, symObjAddr: 0x11C4, symBinAddr: 0x100004034, symSize: 0x14 }
  - { offsetInCU: 0xB29D, offset: 0xB29D, size: 0x8, addend: 0x0, symName: __ZNSt3__1neB8ue170006ERKNS_15__tree_iteratorINS_12__value_typeINS_12basic_stringIcNS_11char_traitsIcEENS_9allocatorIcEEEE6ClientEEPNS_11__tree_nodeIS9_PvEElEESG_, symObjAddr: 0x15DC, symBinAddr: 0x10000444C, symSize: 0x34 }
  - { offsetInCU: 0xB2DA, offset: 0xB2DA, size: 0x8, addend: 0x0, symName: __ZNSt3__1eqB8ue170006ERKNS_15__tree_iteratorINS_12__value_typeINS_12basic_stringIcNS_11char_traitsIcEENS_9allocatorIcEEEE6ClientEEPNS_11__tree_nodeIS9_PvEElEESG_, symObjAddr: 0x1610, symBinAddr: 0x100004480, symSize: 0x30 }
  - { offsetInCU: 0xB317, offset: 0xB317, size: 0x8, addend: 0x0, symName: __ZNSt3__116__tree_next_iterB8ue170006IPNS_15__tree_end_nodeIPNS_16__tree_node_baseIPvEEEES5_EET_T0_, symObjAddr: 0x1678, symBinAddr: 0x1000044E8, symSize: 0xA4 }
  - { offsetInCU: 0xB355, offset: 0xB355, size: 0x8, addend: 0x0, symName: __ZNSt3__110__tree_minB8ue170006IPNS_16__tree_node_baseIPvEEEET_S5_, symObjAddr: 0x171C, symBinAddr: 0x10000458C, symSize: 0x40 }
  - { offsetInCU: 0xB38A, offset: 0xB38A, size: 0x8, addend: 0x0, symName: __ZNSt3__120__tree_is_left_childB8ue170006IPNS_16__tree_node_baseIPvEEEEbT_, symObjAddr: 0x175C, symBinAddr: 0x1000045CC, symSize: 0x2C }
  - { offsetInCU: 0xB3F2, offset: 0xB3F2, size: 0x8, addend: 0x0, symName: __ZNSt3__19use_facetB8ue170006INS_5ctypeIcEEEERKT_RKNS_6localeE, symObjAddr: 0x1884, symBinAddr: 0x1000046F4, symSize: 0x2C }
  - { offsetInCU: 0xEE1D, offset: 0xEE1D, size: 0x8, addend: 0x0, symName: __Z14signal_handleri, symObjAddr: 0x0, symBinAddr: 0x100002E70, symSize: 0xC0 }
  - { offsetInCU: 0xEE61, offset: 0xEE61, size: 0x8, addend: 0x0, symName: __ZNSt3__13mapINS_12basic_stringIcNS_11char_traitsIcEENS_9allocatorIcEEEE6ClientNS_4lessIS6_EENS4_INS_4pairIKS6_S7_EEEEE5beginB8ue170006Ev, symObjAddr: 0xC0, symBinAddr: 0x100002F30, symSize: 0x38 }
  - { offsetInCU: 0xEE85, offset: 0xEE85, size: 0x8, addend: 0x0, symName: __ZNSt3__13mapINS_12basic_stringIcNS_11char_traitsIcEENS_9allocatorIcEEEE6ClientNS_4lessIS6_EENS4_INS_4pairIKS6_S7_EEEEE3endB8ue170006Ev, symObjAddr: 0x128, symBinAddr: 0x100002F98, symSize: 0x38 }
  - { offsetInCU: 0xEEA9, offset: 0xEEA9, size: 0x8, addend: 0x0, symName: __ZNKSt3__114__map_iteratorINS_15__tree_iteratorINS_12__value_typeINS_12basic_stringIcNS_11char_traitsIcEENS_9allocatorIcEEEE6ClientEEPNS_11__tree_nodeISA_PvEElEEEdeB8ue170006Ev, symObjAddr: 0x160, symBinAddr: 0x100002FD0, symSize: 0x28 }
  - { offsetInCU: 0xEF7A, offset: 0xEF7A, size: 0x8, addend: 0x0, symName: __ZNSt3__113basic_ostreamIcNS_11char_traitsIcEEElsB8ue170006EPFRS3_S4_E, symObjAddr: 0x188, symBinAddr: 0x100002FF8, symSize: 0x2C }
  - { offsetInCU: 0xEFAC, offset: 0xEFAC, size: 0x8, addend: 0x0, symName: __ZNSt3__114__map_iteratorINS_15__tree_iteratorINS_12__value_typeINS_12basic_stringIcNS_11char_traitsIcEENS_9allocatorIcEEEE6ClientEEPNS_11__tree_nodeISA_PvEElEEEppB8ue170006Ev, symObjAddr: 0x20C, symBinAddr: 0x10000307C, symSize: 0x2C }
  - { offsetInCU: 0xEFD0, offset: 0xEFD0, size: 0x8, addend: 0x0, symName: _main, symObjAddr: 0x238, symBinAddr: 0x1000030A8, symSize: 0x150 }
  - { offsetInCU: 0xF028, offset: 0xF028, size: 0x8, addend: 0x0, symName: __ZN6ServerD1Ev, symObjAddr: 0x388, symBinAddr: 0x1000031F8, symSize: 0x2C }
  - { offsetInCU: 0xF052, offset: 0xF052, size: 0x8, addend: 0x0, symName: __ZN6ServerD2Ev, symObjAddr: 0x3C0, symBinAddr: 0x100003230, symSize: 0xD4 }
  - { offsetInCU: 0xF07D, offset: 0xF07D, size: 0x8, addend: 0x0, symName: __ZNSt3__13mapINS_12basic_stringIcNS_11char_traitsIcEENS_9allocatorIcEEEE7ChannelNS_4lessIS6_EENS4_INS_4pairIKS6_S7_EEEEED1B8ue170006Ev, symObjAddr: 0x494, symBinAddr: 0x100003304, symSize: 0x2C }
  - { offsetInCU: 0xF0A6, offset: 0xF0A6, size: 0x8, addend: 0x0, symName: __ZNSt3__13mapINS_12basic_stringIcNS_11char_traitsIcEENS_9allocatorIcEEEE6ClientNS_4lessIS6_EENS4_INS_4pairIKS6_S7_EEEEED1B8ue170006Ev, symObjAddr: 0x4C0, symBinAddr: 0x100003330, symSize: 0x2C }
  - { offsetInCU: 0xF0CF, offset: 0xF0CF, size: 0x8, addend: 0x0, symName: __ZNSt3__13mapINS_12basic_stringIcNS_11char_traitsIcEENS_9allocatorIcEEEE7ChannelNS_4lessIS6_EENS4_INS_4pairIKS6_S7_EEEEED2B8ue170006Ev, symObjAddr: 0x4EC, symBinAddr: 0x10000335C, symSize: 0x2C }
  - { offsetInCU: 0xF0F8, offset: 0xF0F8, size: 0x8, addend: 0x0, symName: __ZNSt3__16__treeINS_12__value_typeINS_12basic_stringIcNS_11char_traitsIcEENS_9allocatorIcEEEE7ChannelEENS_19__map_value_compareIS7_S9_NS_4lessIS7_EELb1EEENS5_IS9_EEED1Ev, symObjAddr: 0x518, symBinAddr: 0x100003388, symSize: 0x2C }
  - { offsetInCU: 0xF123, offset: 0xF123, size: 0x8, addend: 0x0, symName: __ZNSt3__16__treeINS_12__value_typeINS_12basic_stringIcNS_11char_traitsIcEENS_9allocatorIcEEEE7ChannelEENS_19__map_value_compareIS7_S9_NS_4lessIS7_EELb1EEENS5_IS9_EEED2Ev, symObjAddr: 0x544, symBinAddr: 0x1000033B4, symSize: 0x38 }
  - { offsetInCU: 0xF14E, offset: 0xF14E, size: 0x8, addend: 0x0, symName: __ZNSt3__16__treeINS_12__value_typeINS_12basic_stringIcNS_11char_traitsIcEENS_9allocatorIcEEEE7ChannelEENS_19__map_value_compareIS7_S9_NS_4lessIS7_EELb1EEENS5_IS9_EEE7destroyEPNS_11__tree_nodeIS9_PvEE, symObjAddr: 0x57C, symBinAddr: 0x1000033EC, symSize: 0xC0 }
  - { offsetInCU: 0xF1A1, offset: 0xF1A1, size: 0x8, addend: 0x0, symName: __ZNKSt3__16__treeINS_12__value_typeINS_12basic_stringIcNS_11char_traitsIcEENS_9allocatorIcEEEE7ChannelEENS_19__map_value_compareIS7_S9_NS_4lessIS7_EELb1EEENS5_IS9_EEE6__rootB8ue170006Ev, symObjAddr: 0x63C, symBinAddr: 0x1000034AC, symSize: 0x28 }
  - { offsetInCU: 0xF1C5, offset: 0xF1C5, size: 0x8, addend: 0x0, symName: __ZNSt3__16__treeINS_12__value_typeINS_12basic_stringIcNS_11char_traitsIcEENS_9allocatorIcEEEE7ChannelEENS_19__map_value_compareIS7_S9_NS_4lessIS7_EELb1EEENS5_IS9_EEE12__node_allocB8ue170006Ev, symObjAddr: 0x664, symBinAddr: 0x1000034D4, symSize: 0x28 }
  - { offsetInCU: 0xF1EF, offset: 0xF1EF, size: 0x8, addend: 0x0, symName: __ZNSt3__116allocator_traitsINS_9allocatorINS_11__tree_nodeINS_12__value_typeINS_12basic_stringIcNS_11char_traitsIcEENS1_IcEEEE7ChannelEEPvEEEEE7destroyB8ue170006INS_4pairIKS8_S9_EEvvEEvRSD_PT_, symObjAddr: 0x68C, symBinAddr: 0x1000034FC, symSize: 0x28 }
  - { offsetInCU: 0xF22A, offset: 0xF22A, size: 0x8, addend: 0x0, symName: __ZNSt3__122__tree_key_value_typesINS_12__value_typeINS_12basic_stringIcNS_11char_traitsIcEENS_9allocatorIcEEEE7ChannelEEE9__get_ptrB8ue170006ERS9_, symObjAddr: 0x6B4, symBinAddr: 0x100003524, symSize: 0x24 }
  - { offsetInCU: 0xF24E, offset: 0xF24E, size: 0x8, addend: 0x0, symName: __ZNSt3__116allocator_traitsINS_9allocatorINS_11__tree_nodeINS_12__value_typeINS_12basic_stringIcNS_11char_traitsIcEENS1_IcEEEE7ChannelEEPvEEEEE10deallocateB8ue170006ERSD_PSC_m, symObjAddr: 0x6D8, symBinAddr: 0x100003548, symSize: 0x34 }
  - { offsetInCU: 0xF28F, offset: 0xF28F, size: 0x8, addend: 0x0, symName: __ZNSt3__117__compressed_pairINS_15__tree_end_nodeIPNS_16__tree_node_baseIPvEEEENS_9allocatorINS_11__tree_nodeINS_12__value_typeINS_12basic_stringIcNS_11char_traitsIcEENS7_IcEEEE7ChannelEES3_EEEEE6secondB8ue170006Ev, symObjAddr: 0x70C, symBinAddr: 0x10000357C, symSize: 0x24 }
  - { offsetInCU: 0xF2B4, offset: 0xF2B4, size: 0x8, addend: 0x0, symName: __ZNSt3__122__compressed_pair_elemINS_9allocatorINS_11__tree_nodeINS_12__value_typeINS_12basic_stringIcNS_11char_traitsIcEENS1_IcEEEE7ChannelEEPvEEEELi1ELb1EE5__getB8ue170006Ev, symObjAddr: 0x730, symBinAddr: 0x1000035A0, symSize: 0x14 }
  - { offsetInCU: 0xF2D8, offset: 0xF2D8, size: 0x8, addend: 0x0, symName: __ZNSt3__14pairIKNS_12basic_stringIcNS_11char_traitsIcEENS_9allocatorIcEEEE7ChannelED1Ev, symObjAddr: 0x744, symBinAddr: 0x1000035B4, symSize: 0x2C }
  - { offsetInCU: 0xF302, offset: 0xF302, size: 0x8, addend: 0x0, symName: __ZNSt3__14pairIKNS_12basic_stringIcNS_11char_traitsIcEENS_9allocatorIcEEEE7ChannelED2Ev, symObjAddr: 0x770, symBinAddr: 0x1000035E0, symSize: 0x68 }
  - { offsetInCU: 0xF32D, offset: 0xF32D, size: 0x8, addend: 0x0, symName: __ZNSt3__112__value_typeINS_12basic_stringIcNS_11char_traitsIcEENS_9allocatorIcEEEE7ChannelE11__get_valueB8ue170006Ev, symObjAddr: 0x7D8, symBinAddr: 0x100003648, symSize: 0x14 }
  - { offsetInCU: 0xF351, offset: 0xF351, size: 0x8, addend: 0x0, symName: __ZNSt3__19allocatorINS_11__tree_nodeINS_12__value_typeINS_12basic_stringIcNS_11char_traitsIcEENS0_IcEEEE7ChannelEEPvEEE10deallocateB8ue170006EPSB_m, symObjAddr: 0x7EC, symBinAddr: 0x10000365C, symSize: 0x74 }
  - { offsetInCU: 0xF391, offset: 0xF391, size: 0x8, addend: 0x0, symName: __ZNKSt3__16__treeINS_12__value_typeINS_12basic_stringIcNS_11char_traitsIcEENS_9allocatorIcEEEE7ChannelEENS_19__map_value_compareIS7_S9_NS_4lessIS7_EELb1EEENS5_IS9_EEE10__end_nodeB8ue170006Ev, symObjAddr: 0x8E8, symBinAddr: 0x100003758, symSize: 0x2C }
  - { offsetInCU: 0xF3B6, offset: 0xF3B6, size: 0x8, addend: 0x0, symName: __ZNSt3__114pointer_traitsIPNS_15__tree_end_nodeIPNS_16__tree_node_baseIPvEEEEE10pointer_toB8ue170006ERS6_, symObjAddr: 0x914, symBinAddr: 0x100003784, symSize: 0x14 }
  - { offsetInCU: 0xF3D8, offset: 0xF3D8, size: 0x8, addend: 0x0, symName: __ZNKSt3__117__compressed_pairINS_15__tree_end_nodeIPNS_16__tree_node_baseIPvEEEENS_9allocatorINS_11__tree_nodeINS_12__value_typeINS_12basic_stringIcNS_11char_traitsIcEENS7_IcEEEE7ChannelEES3_EEEEE5firstB8ue170006Ev, symObjAddr: 0x928, symBinAddr: 0x100003798, symSize: 0x24 }
  - { offsetInCU: 0xF3FD, offset: 0xF3FD, size: 0x8, addend: 0x0, symName: __ZNKSt3__122__compressed_pair_elemINS_15__tree_end_nodeIPNS_16__tree_node_baseIPvEEEELi0ELb0EE5__getB8ue170006Ev, symObjAddr: 0x94C, symBinAddr: 0x1000037BC, symSize: 0x14 }
  - { offsetInCU: 0xF422, offset: 0xF422, size: 0x8, addend: 0x0, symName: __ZNSt3__13mapINS_12basic_stringIcNS_11char_traitsIcEENS_9allocatorIcEEEE6ClientNS_4lessIS6_EENS4_INS_4pairIKS6_S7_EEEEED2B8ue170006Ev, symObjAddr: 0x960, symBinAddr: 0x1000037D0, symSize: 0x2C }
  - { offsetInCU: 0xF44B, offset: 0xF44B, size: 0x8, addend: 0x0, symName: __ZNSt3__16__treeINS_12__value_typeINS_12basic_stringIcNS_11char_traitsIcEENS_9allocatorIcEEEE6ClientEENS_19__map_value_compareIS7_S9_NS_4lessIS7_EELb1EEENS5_IS9_EEED1Ev, symObjAddr: 0x98C, symBinAddr: 0x1000037FC, symSize: 0x2C }
  - { offsetInCU: 0xF476, offset: 0xF476, size: 0x8, addend: 0x0, symName: __ZNSt3__16__treeINS_12__value_typeINS_12basic_stringIcNS_11char_traitsIcEENS_9allocatorIcEEEE6ClientEENS_19__map_value_compareIS7_S9_NS_4lessIS7_EELb1EEENS5_IS9_EEED2Ev, symObjAddr: 0x9B8, symBinAddr: 0x100003828, symSize: 0x38 }
  - { offsetInCU: 0xF4A1, offset: 0xF4A1, size: 0x8, addend: 0x0, symName: __ZNSt3__16__treeINS_12__value_typeINS_12basic_stringIcNS_11char_traitsIcEENS_9allocatorIcEEEE6ClientEENS_19__map_value_compareIS7_S9_NS_4lessIS7_EELb1EEENS5_IS9_EEE7destroyEPNS_11__tree_nodeIS9_PvEE, symObjAddr: 0x9F0, symBinAddr: 0x100003860, symSize: 0xC0 }
  - { offsetInCU: 0xF4F4, offset: 0xF4F4, size: 0x8, addend: 0x0, symName: __ZNKSt3__16__treeINS_12__value_typeINS_12basic_stringIcNS_11char_traitsIcEENS_9allocatorIcEEEE6ClientEENS_19__map_value_compareIS7_S9_NS_4lessIS7_EELb1EEENS5_IS9_EEE6__rootB8ue170006Ev, symObjAddr: 0xAB0, symBinAddr: 0x100003920, symSize: 0x28 }
  - { offsetInCU: 0xF518, offset: 0xF518, size: 0x8, addend: 0x0, symName: __ZNSt3__16__treeINS_12__value_typeINS_12basic_stringIcNS_11char_traitsIcEENS_9allocatorIcEEEE6ClientEENS_19__map_value_compareIS7_S9_NS_4lessIS7_EELb1EEENS5_IS9_EEE12__node_allocB8ue170006Ev, symObjAddr: 0xAD8, symBinAddr: 0x100003948, symSize: 0x28 }
  - { offsetInCU: 0xF542, offset: 0xF542, size: 0x8, addend: 0x0, symName: __ZNSt3__116allocator_traitsINS_9allocatorINS_11__tree_nodeINS_12__value_typeINS_12basic_stringIcNS_11char_traitsIcEENS1_IcEEEE6ClientEEPvEEEEE7destroyB8ue170006INS_4pairIKS8_S9_EEvvEEvRSD_PT_, symObjAddr: 0xB00, symBinAddr: 0x100003970, symSize: 0x28 }
  - { offsetInCU: 0xF57D, offset: 0xF57D, size: 0x8, addend: 0x0, symName: __ZNSt3__122__tree_key_value_typesINS_12__value_typeINS_12basic_stringIcNS_11char_traitsIcEENS_9allocatorIcEEEE6ClientEEE9__get_ptrB8ue170006ERS9_, symObjAddr: 0xB28, symBinAddr: 0x100003998, symSize: 0x24 }
  - { offsetInCU: 0xF5A1, offset: 0xF5A1, size: 0x8, addend: 0x0, symName: __ZNSt3__116allocator_traitsINS_9allocatorINS_11__tree_nodeINS_12__value_typeINS_12basic_stringIcNS_11char_traitsIcEENS1_IcEEEE6ClientEEPvEEEEE10deallocateB8ue170006ERSD_PSC_m, symObjAddr: 0xB4C, symBinAddr: 0x1000039BC, symSize: 0x34 }
  - { offsetInCU: 0xF5E2, offset: 0xF5E2, size: 0x8, addend: 0x0, symName: __ZNSt3__117__compressed_pairINS_15__tree_end_nodeIPNS_16__tree_node_baseIPvEEEENS_9allocatorINS_11__tree_nodeINS_12__value_typeINS_12basic_stringIcNS_11char_traitsIcEENS7_IcEEEE6ClientEES3_EEEEE6secondB8ue170006Ev, symObjAddr: 0xB80, symBinAddr: 0x1000039F0, symSize: 0x24 }
  - { offsetInCU: 0xF607, offset: 0xF607, size: 0x8, addend: 0x0, symName: __ZNSt3__122__compressed_pair_elemINS_9allocatorINS_11__tree_nodeINS_12__value_typeINS_12basic_stringIcNS_11char_traitsIcEENS1_IcEEEE6ClientEEPvEEEELi1ELb1EE5__getB8ue170006Ev, symObjAddr: 0xBA4, symBinAddr: 0x100003A14, symSize: 0x14 }
  - { offsetInCU: 0xF62B, offset: 0xF62B, size: 0x8, addend: 0x0, symName: __ZNSt3__14pairIKNS_12basic_stringIcNS_11char_traitsIcEENS_9allocatorIcEEEE6ClientED1Ev, symObjAddr: 0xBB8, symBinAddr: 0x100003A28, symSize: 0x2C }
  - { offsetInCU: 0xF655, offset: 0xF655, size: 0x8, addend: 0x0, symName: __ZNSt3__14pairIKNS_12basic_stringIcNS_11char_traitsIcEENS_9allocatorIcEEEE6ClientED2Ev, symObjAddr: 0xBE4, symBinAddr: 0x100003A54, symSize: 0x68 }
  - { offsetInCU: 0xF67F, offset: 0xF67F, size: 0x8, addend: 0x0, symName: __ZN6ClientD1Ev, symObjAddr: 0xC4C, symBinAddr: 0x100003ABC, symSize: 0x2C }
  - { offsetInCU: 0xF6A9, offset: 0xF6A9, size: 0x8, addend: 0x0, symName: __ZN6ClientD2Ev, symObjAddr: 0xC78, symBinAddr: 0x100003AE8, symSize: 0x19C }
  - { offsetInCU: 0xF6D4, offset: 0xF6D4, size: 0x8, addend: 0x0, symName: __ZNSt3__16vectorINS_12basic_stringIcNS_11char_traitsIcEENS_9allocatorIcEEEENS4_IS6_EEED1B8ue170006Ev, symObjAddr: 0xE14, symBinAddr: 0x100003C84, symSize: 0x2C }
  - { offsetInCU: 0xF6FD, offset: 0xF6FD, size: 0x8, addend: 0x0, symName: __ZNSt3__16vectorINS_12basic_stringIcNS_11char_traitsIcEENS_9allocatorIcEEEENS4_IS6_EEED2B8ue170006Ev, symObjAddr: 0xE40, symBinAddr: 0x100003CB0, symSize: 0x3C }
  - { offsetInCU: 0xF726, offset: 0xF726, size: 0x8, addend: 0x0, symName: __ZNSt3__16vectorINS_12basic_stringIcNS_11char_traitsIcEENS_9allocatorIcEEEENS4_IS6_EEE16__destroy_vectorC1B8ue170006ERS8_, symObjAddr: 0xE7C, symBinAddr: 0x100003CEC, symSize: 0x34 }
  - { offsetInCU: 0xF75D, offset: 0xF75D, size: 0x8, addend: 0x0, symName: __ZNSt3__16vectorINS_12basic_stringIcNS_11char_traitsIcEENS_9allocatorIcEEEENS4_IS6_EEE16__destroy_vectorclB8ue170006Ev, symObjAddr: 0xEB0, symBinAddr: 0x100003D20, symSize: 0x90 }
  - { offsetInCU: 0xF782, offset: 0xF782, size: 0x8, addend: 0x0, symName: __ZNSt3__16vectorINS_12basic_stringIcNS_11char_traitsIcEENS_9allocatorIcEEEENS4_IS6_EEE16__destroy_vectorC2B8ue170006ERS8_, symObjAddr: 0xF40, symBinAddr: 0x100003DB0, symSize: 0x20 }
  - { offsetInCU: 0xF7B9, offset: 0xF7B9, size: 0x8, addend: 0x0, symName: __ZNSt3__16vectorINS_12basic_stringIcNS_11char_traitsIcEENS_9allocatorIcEEEENS4_IS6_EEE7__clearB8ue170006Ev, symObjAddr: 0xF60, symBinAddr: 0x100003DD0, symSize: 0x28 }
  - { offsetInCU: 0xF7DD, offset: 0xF7DD, size: 0x8, addend: 0x0, symName: __ZNKSt3__16vectorINS_12basic_stringIcNS_11char_traitsIcEENS_9allocatorIcEEEENS4_IS6_EEE17__annotate_deleteB8ue170006Ev, symObjAddr: 0xF88, symBinAddr: 0x100003DF8, symSize: 0xD4 }
  - { offsetInCU: 0xF802, offset: 0xF802, size: 0x8, addend: 0x0, symName: __ZNSt3__116allocator_traitsINS_9allocatorINS_12basic_stringIcNS_11char_traitsIcEENS1_IcEEEEEEE10deallocateB8ue170006ERS7_PS6_m, symObjAddr: 0x105C, symBinAddr: 0x100003ECC, symSize: 0x34 }
  - { offsetInCU: 0xF843, offset: 0xF843, size: 0x8, addend: 0x0, symName: __ZNSt3__16vectorINS_12basic_stringIcNS_11char_traitsIcEENS_9allocatorIcEEEENS4_IS6_EEE7__allocB8ue170006Ev, symObjAddr: 0x1090, symBinAddr: 0x100003F00, symSize: 0x28 }
  - { offsetInCU: 0xF867, offset: 0xF867, size: 0x8, addend: 0x0, symName: __ZNKSt3__16vectorINS_12basic_stringIcNS_11char_traitsIcEENS_9allocatorIcEEEENS4_IS6_EEE8capacityB8ue170006Ev, symObjAddr: 0x10B8, symBinAddr: 0x100003F28, symSize: 0x40 }
  - { offsetInCU: 0xF88B, offset: 0xF88B, size: 0x8, addend: 0x0, symName: __ZNSt3__16vectorINS_12basic_stringIcNS_11char_traitsIcEENS_9allocatorIcEEEENS4_IS6_EEE22__base_destruct_at_endB8ue170006EPS6_, symObjAddr: 0x10F8, symBinAddr: 0x100003F68, symSize: 0xA0 }
  - { offsetInCU: 0xF8CF, offset: 0xF8CF, size: 0x8, addend: 0x0, symName: __ZNSt3__116allocator_traitsINS_9allocatorINS_12basic_stringIcNS_11char_traitsIcEENS1_IcEEEEEEE7destroyB8ue170006IS6_vEEvRS7_PT_, symObjAddr: 0x1198, symBinAddr: 0x100004008, symSize: 0x2C }
  - { offsetInCU: 0xF90B, offset: 0xF90B, size: 0x8, addend: 0x0, symName: __ZNSt3__19allocatorINS_12basic_stringIcNS_11char_traitsIcEENS0_IcEEEEE7destroyB8ue170006EPS5_, symObjAddr: 0x11D8, symBinAddr: 0x100004048, symSize: 0x28 }
  - { offsetInCU: 0xF93E, offset: 0xF93E, size: 0x8, addend: 0x0, symName: __ZNKSt3__16vectorINS_12basic_stringIcNS_11char_traitsIcEENS_9allocatorIcEEEENS4_IS6_EEE31__annotate_contiguous_containerB8ue170006EPKvSA_SA_SA_, symObjAddr: 0x1200, symBinAddr: 0x100004070, symSize: 0x20 }
  - { offsetInCU: 0xF992, offset: 0xF992, size: 0x8, addend: 0x0, symName: __ZNKSt3__16vectorINS_12basic_stringIcNS_11char_traitsIcEENS_9allocatorIcEEEENS4_IS6_EEE4dataB8ue170006Ev, symObjAddr: 0x1220, symBinAddr: 0x100004090, symSize: 0x28 }
  - { offsetInCU: 0xF9B7, offset: 0xF9B7, size: 0x8, addend: 0x0, symName: __ZNKSt3__16vectorINS_12basic_stringIcNS_11char_traitsIcEENS_9allocatorIcEEEENS4_IS6_EEE4sizeB8ue170006Ev, symObjAddr: 0x1248, symBinAddr: 0x1000040B8, symSize: 0x28 }
  - { offsetInCU: 0xF9DB, offset: 0xF9DB, size: 0x8, addend: 0x0, symName: __ZNSt3__19allocatorINS_12basic_stringIcNS_11char_traitsIcEENS0_IcEEEEE10deallocateB8ue170006EPS5_m, symObjAddr: 0x1270, symBinAddr: 0x1000040E0, symSize: 0x74 }
  - { offsetInCU: 0xFA1B, offset: 0xFA1B, size: 0x8, addend: 0x0, symName: __ZNSt3__117__compressed_pairIPNS_12basic_stringIcNS_11char_traitsIcEENS_9allocatorIcEEEENS4_IS6_EEE6secondB8ue170006Ev, symObjAddr: 0x12E4, symBinAddr: 0x100004154, symSize: 0x24 }
  - { offsetInCU: 0xFA40, offset: 0xFA40, size: 0x8, addend: 0x0, symName: __ZNSt3__122__compressed_pair_elemINS_9allocatorINS_12basic_stringIcNS_11char_traitsIcEENS1_IcEEEEEELi1ELb1EE5__getB8ue170006Ev, symObjAddr: 0x1308, symBinAddr: 0x100004178, symSize: 0x14 }
  - { offsetInCU: 0xFA64, offset: 0xFA64, size: 0x8, addend: 0x0, symName: __ZNKSt3__16vectorINS_12basic_stringIcNS_11char_traitsIcEENS_9allocatorIcEEEENS4_IS6_EEE9__end_capB8ue170006Ev, symObjAddr: 0x131C, symBinAddr: 0x10000418C, symSize: 0x28 }
  - { offsetInCU: 0xFA88, offset: 0xFA88, size: 0x8, addend: 0x0, symName: __ZNKSt3__117__compressed_pairIPNS_12basic_stringIcNS_11char_traitsIcEENS_9allocatorIcEEEENS4_IS6_EEE5firstB8ue170006Ev, symObjAddr: 0x1344, symBinAddr: 0x1000041B4, symSize: 0x24 }
  - { offsetInCU: 0xFAAD, offset: 0xFAAD, size: 0x8, addend: 0x0, symName: __ZNKSt3__122__compressed_pair_elemIPNS_12basic_stringIcNS_11char_traitsIcEENS_9allocatorIcEEEELi0ELb0EE5__getB8ue170006Ev, symObjAddr: 0x1368, symBinAddr: 0x1000041D8, symSize: 0x14 }
  - { offsetInCU: 0xFAD2, offset: 0xFAD2, size: 0x8, addend: 0x0, symName: __ZNSt3__112__value_typeINS_12basic_stringIcNS_11char_traitsIcEENS_9allocatorIcEEEE6ClientE11__get_valueB8ue170006Ev, symObjAddr: 0x137C, symBinAddr: 0x1000041EC, symSize: 0x14 }
  - { offsetInCU: 0xFAF6, offset: 0xFAF6, size: 0x8, addend: 0x0, symName: __ZNSt3__19allocatorINS_11__tree_nodeINS_12__value_typeINS_12basic_stringIcNS_11char_traitsIcEENS0_IcEEEE6ClientEEPvEEE10deallocateB8ue170006EPSB_m, symObjAddr: 0x1390, symBinAddr: 0x100004200, symSize: 0x74 }
  - { offsetInCU: 0xFB36, offset: 0xFB36, size: 0x8, addend: 0x0, symName: __ZNKSt3__16__treeINS_12__value_typeINS_12basic_stringIcNS_11char_traitsIcEENS_9allocatorIcEEEE6ClientEENS_19__map_value_compareIS7_S9_NS_4lessIS7_EELb1EEENS5_IS9_EEE10__end_nodeB8ue170006Ev, symObjAddr: 0x1404, symBinAddr: 0x100004274, symSize: 0x2C }
  - { offsetInCU: 0xFB5A, offset: 0xFB5A, size: 0x8, addend: 0x0, symName: __ZNKSt3__117__compressed_pairINS_15__tree_end_nodeIPNS_16__tree_node_baseIPvEEEENS_9allocatorINS_11__tree_nodeINS_12__value_typeINS_12basic_stringIcNS_11char_traitsIcEENS7_IcEEEE6ClientEES3_EEEEE5firstB8ue170006Ev, symObjAddr: 0x1430, symBinAddr: 0x1000042A0, symSize: 0x24 }
  - { offsetInCU: 0xFB7E, offset: 0xFB7E, size: 0x8, addend: 0x0, symName: __ZNSt3__16__treeINS_12__value_typeINS_12basic_stringIcNS_11char_traitsIcEENS_9allocatorIcEEEE6ClientEENS_19__map_value_compareIS7_S9_NS_4lessIS7_EELb1EEENS5_IS9_EEE5beginB8ue170006Ev, symObjAddr: 0x1454, symBinAddr: 0x1000042C4, symSize: 0x34 }
  - { offsetInCU: 0xFBA3, offset: 0xFBA3, size: 0x8, addend: 0x0, symName: __ZNSt3__114__map_iteratorINS_15__tree_iteratorINS_12__value_typeINS_12basic_stringIcNS_11char_traitsIcEENS_9allocatorIcEEEE6ClientEEPNS_11__tree_nodeISA_PvEElEEEC1B8ue170006ESF_, symObjAddr: 0x1488, symBinAddr: 0x1000042F8, symSize: 0x34 }
  - { offsetInCU: 0xFBDB, offset: 0xFBDB, size: 0x8, addend: 0x0, symName: __ZNSt3__16__treeINS_12__value_typeINS_12basic_stringIcNS_11char_traitsIcEENS_9allocatorIcEEEE6ClientEENS_19__map_value_compareIS7_S9_NS_4lessIS7_EELb1EEENS5_IS9_EEE12__begin_nodeB8ue170006Ev, symObjAddr: 0x14BC, symBinAddr: 0x10000432C, symSize: 0x14 }
  - { offsetInCU: 0xFC00, offset: 0xFC00, size: 0x8, addend: 0x0, symName: __ZNSt3__115__tree_iteratorINS_12__value_typeINS_12basic_stringIcNS_11char_traitsIcEENS_9allocatorIcEEEE6ClientEEPNS_11__tree_nodeIS9_PvEElEC1B8ue170006EPNS_15__tree_end_nodeIPNS_16__tree_node_baseISB_EEEE, symObjAddr: 0x14D0, symBinAddr: 0x100004340, symSize: 0x34 }
  - { offsetInCU: 0xFC38, offset: 0xFC38, size: 0x8, addend: 0x0, symName: __ZNSt3__115__tree_iteratorINS_12__value_typeINS_12basic_stringIcNS_11char_traitsIcEENS_9allocatorIcEEEE6ClientEEPNS_11__tree_nodeIS9_PvEElEC2B8ue170006EPNS_15__tree_end_nodeIPNS_16__tree_node_baseISB_EEEE, symObjAddr: 0x1504, symBinAddr: 0x100004374, symSize: 0x20 }
  - { offsetInCU: 0xFC70, offset: 0xFC70, size: 0x8, addend: 0x0, symName: __ZNSt3__114__map_iteratorINS_15__tree_iteratorINS_12__value_typeINS_12basic_stringIcNS_11char_traitsIcEENS_9allocatorIcEEEE6ClientEEPNS_11__tree_nodeISA_PvEElEEEC2B8ue170006ESF_, symObjAddr: 0x1524, symBinAddr: 0x100004394, symSize: 0x20 }
  - { offsetInCU: 0xFCA7, offset: 0xFCA7, size: 0x8, addend: 0x0, symName: __ZNSt3__16__treeINS_12__value_typeINS_12basic_stringIcNS_11char_traitsIcEENS_9allocatorIcEEEE6ClientEENS_19__map_value_compareIS7_S9_NS_4lessIS7_EELb1EEENS5_IS9_EEE3endB8ue170006Ev, symObjAddr: 0x1544, symBinAddr: 0x1000043B4, symSize: 0x34 }
  - { offsetInCU: 0xFCCB, offset: 0xFCCB, size: 0x8, addend: 0x0, symName: __ZNSt3__16__treeINS_12__value_typeINS_12basic_stringIcNS_11char_traitsIcEENS_9allocatorIcEEEE6ClientEENS_19__map_value_compareIS7_S9_NS_4lessIS7_EELb1EEENS5_IS9_EEE10__end_nodeB8ue170006Ev, symObjAddr: 0x1578, symBinAddr: 0x1000043E8, symSize: 0x2C }
  - { offsetInCU: 0xFCEF, offset: 0xFCEF, size: 0x8, addend: 0x0, symName: __ZNSt3__117__compressed_pairINS_15__tree_end_nodeIPNS_16__tree_node_baseIPvEEEENS_9allocatorINS_11__tree_nodeINS_12__value_typeINS_12basic_stringIcNS_11char_traitsIcEENS7_IcEEEE6ClientEES3_EEEEE5firstB8ue170006Ev, symObjAddr: 0x15A4, symBinAddr: 0x100004414, symSize: 0x24 }
  - { offsetInCU: 0xFD14, offset: 0xFD14, size: 0x8, addend: 0x0, symName: __ZNSt3__122__compressed_pair_elemINS_15__tree_end_nodeIPNS_16__tree_node_baseIPvEEEELi0ELb0EE5__getB8ue170006Ev, symObjAddr: 0x15C8, symBinAddr: 0x100004438, symSize: 0x14 }
  - { offsetInCU: 0xFD38, offset: 0xFD38, size: 0x8, addend: 0x0, symName: __ZNSt3__115__tree_iteratorINS_12__value_typeINS_12basic_stringIcNS_11char_traitsIcEENS_9allocatorIcEEEE6ClientEEPNS_11__tree_nodeIS9_PvEElEppB8ue170006Ev, symObjAddr: 0x1640, symBinAddr: 0x1000044B0, symSize: 0x38 }
  - { offsetInCU: 0xFD5D, offset: 0xFD5D, size: 0x8, addend: 0x0, symName: __ZNKSt3__116__tree_node_baseIPvE15__parent_unsafeB8ue170006Ev, symObjAddr: 0x1788, symBinAddr: 0x1000045F8, symSize: 0x18 }
  - { offsetInCU: 0xFD81, offset: 0xFD81, size: 0x8, addend: 0x0, symName: __ZNKSt3__115__tree_iteratorINS_12__value_typeINS_12basic_stringIcNS_11char_traitsIcEENS_9allocatorIcEEEE6ClientEEPNS_11__tree_nodeIS9_PvEElEptB8ue170006Ev, symObjAddr: 0x17A0, symBinAddr: 0x100004610, symSize: 0x2C }
  - { offsetInCU: 0xFDA6, offset: 0xFDA6, size: 0x8, addend: 0x0, symName: __ZNSt3__114pointer_traitsIPNS_12__value_typeINS_12basic_stringIcNS_11char_traitsIcEENS_9allocatorIcEEEE6ClientEEE10pointer_toB8ue170006ERS9_, symObjAddr: 0x17CC, symBinAddr: 0x10000463C, symSize: 0x14 }
  - { offsetInCU: 0xFDC9, offset: 0xFDC9, size: 0x8, addend: 0x0, symName: __ZNKSt3__115__tree_iteratorINS_12__value_typeINS_12basic_stringIcNS_11char_traitsIcEENS_9allocatorIcEEEE6ClientEEPNS_11__tree_nodeIS9_PvEElE8__get_npB8ue170006Ev, symObjAddr: 0x17E0, symBinAddr: 0x100004650, symSize: 0x18 }
  - { offsetInCU: 0xFDEE, offset: 0xFDEE, size: 0x8, addend: 0x0, symName: __ZNKSt3__19basic_iosIcNS_11char_traitsIcEEE5widenB8ue170006Ec, symObjAddr: 0x17F8, symBinAddr: 0x100004668, symSize: 0x8C }
  - { offsetInCU: 0xFE5A, offset: 0xFE5A, size: 0x8, addend: 0x0, symName: __ZNKSt3__15ctypeIcE5widenB8ue170006Ec, symObjAddr: 0x18B0, symBinAddr: 0x100004720, symSize: 0x38 }
  - { offsetInCU: 0x4C, offset: 0xFF6A, size: 0x8, addend: 0x0, symName: __ZN6Server8passwordE, symObjAddr: 0x68FD0, symBinAddr: 0x100038008, symSize: 0x0 }
  - { offsetInCU: 0x92A4, offset: 0x191C2, size: 0x8, addend: 0x0, symName: __ZNSt3__124__put_character_sequenceB8ue170006IcNS_11char_traitsIcEEEERNS_13basic_ostreamIT_T0_EES7_PKS4_m, symObjAddr: 0x42AC, symBinAddr: 0x100007840, symSize: 0x1F4 }
  - { offsetInCU: 0x9E71, offset: 0x19D8F, size: 0x8, addend: 0x0, symName: __ZNSt3__16copy_nB8ue170006IPKcmPcEENS_9enable_ifIXsr37__has_random_access_iterator_categoryIT_EE5valueET1_E4typeES5_T0_S6_, symObjAddr: 0x6FD8, symBinAddr: 0x10000A47C, symSize: 0x44 }
  - { offsetInCU: 0xAC15, offset: 0x1AB33, size: 0x8, addend: 0x0, symName: __ZNSt3__1neB8ue170006ERKNS_14__map_iteratorINS_15__tree_iteratorINS_12__value_typeINS_12basic_stringIcNS_11char_traitsIcEENS_9allocatorIcEEEE7ChannelEEPNS_11__tree_nodeISA_PvEElEEEESI_, symObjAddr: 0x108, symBinAddr: 0x100004860, symSize: 0x30 }
  - { offsetInCU: 0xAC52, offset: 0x1AB70, size: 0x8, addend: 0x0, symName: __ZNSt3__1lsB8ue170006INS_11char_traitsIcEEEERNS_13basic_ostreamIcT_EES6_PKc, symObjAddr: 0x3A0, symBinAddr: 0x100004AF8, symSize: 0x48 }
  - { offsetInCU: 0xB5E2, offset: 0x1B500, size: 0x8, addend: 0x0, symName: __ZNSt3__1neB8ue170006IcNS_11char_traitsIcEENS_9allocatorIcEEEEbRKNS_12basic_stringIT_T0_T1_EEPKS6_, symObjAddr: 0x1A70, symBinAddr: 0x1000061BC, symSize: 0x34 }
  - { offsetInCU: 0xB63A, offset: 0x1B558, size: 0x8, addend: 0x0, symName: __ZNSt3__1plB8ue170006IcNS_11char_traitsIcEENS_9allocatorIcEEEENS_12basic_stringIT_T0_T1_EERKS9_SB_, symObjAddr: 0x1B98, symBinAddr: 0x1000062E4, symSize: 0x134 }
  - { offsetInCU: 0xB6DF, offset: 0x1B5FD, size: 0x8, addend: 0x0, symName: __ZNSt3__1plB8ue170006IcNS_11char_traitsIcEENS_9allocatorIcEEEENS_12basic_stringIT_T0_T1_EERKS9_PKS6_, symObjAddr: 0x1CCC, symBinAddr: 0x100006418, symSize: 0x11C }
  - { offsetInCU: 0xB784, offset: 0x1B6A2, size: 0x8, addend: 0x0, symName: __ZNSt3__1lsB8ue170006IcNS_11char_traitsIcEENS_9allocatorIcEEEERNS_13basic_ostreamIT_T0_EES9_RKNS_12basic_stringIS6_S7_T1_EE, symObjAddr: 0x1E88, symBinAddr: 0x100006534, symSize: 0x4C }
  - { offsetInCU: 0xB7DC, offset: 0x1B6FA, size: 0x8, addend: 0x0, symName: __ZNSt3__118__constexpr_strlenB8ue170006EPKc, symObjAddr: 0x3648, symBinAddr: 0x10000740C, symSize: 0x24 }
  - { offsetInCU: 0xB808, offset: 0x1B726, size: 0x8, addend: 0x0, symName: __ZNSt3__1neB8ue170006ERKNS_15__tree_iteratorINS_12__value_typeINS_12basic_stringIcNS_11char_traitsIcEENS_9allocatorIcEEEE7ChannelEEPNS_11__tree_nodeIS9_PvEElEESG_, symObjAddr: 0x3808, symBinAddr: 0x1000075A4, symSize: 0x34 }
  - { offsetInCU: 0xB845, offset: 0x1B763, size: 0x8, addend: 0x0, symName: __ZNSt3__1eqB8ue170006ERKNS_15__tree_iteratorINS_12__value_typeINS_12basic_stringIcNS_11char_traitsIcEENS_9allocatorIcEEEE7ChannelEEPNS_11__tree_nodeIS9_PvEElEESG_, symObjAddr: 0x383C, symBinAddr: 0x1000075D8, symSize: 0x30 }
  - { offsetInCU: 0xB8E8, offset: 0x1B806, size: 0x8, addend: 0x0, symName: __ZNSt3__116__pad_and_outputB8ue170006IcNS_11char_traitsIcEEEENS_19ostreambuf_iteratorIT_T0_EES6_PKS4_S8_S8_RNS_8ios_baseES4_, symObjAddr: 0x44BC, symBinAddr: 0x100007A50, symSize: 0x248 }
  - { offsetInCU: 0xB9BB, offset: 0x1B8D9, size: 0x8, addend: 0x0, symName: __ZNSt3__112__to_addressB8ue170006IKcEEPT_S3_, symObjAddr: 0x4934, symBinAddr: 0x100007EC8, symSize: 0x14 }
  - { offsetInCU: 0xBA23, offset: 0x1B941, size: 0x8, addend: 0x0, symName: __ZNSt3__1eqB8ue170006IcNS_11char_traitsIcEENS_9allocatorIcEEEEbRKNS_12basic_stringIT_T0_T1_EEPKS6_, symObjAddr: 0x4F60, symBinAddr: 0x100008404, symSize: 0xC0 }
  - { offsetInCU: 0xBA8B, offset: 0x1B9A9, size: 0x8, addend: 0x0, symName: __ZNSt3__1ltB8ue170006IcNS_11char_traitsIcEENS_9allocatorIcEEEEbRKNS_12basic_stringIT_T0_T1_EESB_, symObjAddr: 0x5660, symBinAddr: 0x100008B04, symSize: 0x38 }
  - { offsetInCU: 0xBAE3, offset: 0x1BA01, size: 0x8, addend: 0x0, symName: __ZNSt3__13minB8ue170006ImEERKT_S3_S3_, symObjAddr: 0x5908, symBinAddr: 0x100008DAC, symSize: 0x2C }
  - { offsetInCU: 0xBB26, offset: 0x1BA44, size: 0x8, addend: 0x0, symName: __ZNSt3__13minB8ue170006ImNS_6__lessIvvEEEERKT_S5_S5_T0_, symObjAddr: 0x5934, symBinAddr: 0x100008DD8, symSize: 0x54 }
  - { offsetInCU: 0xBBE5, offset: 0x1BB03, size: 0x8, addend: 0x0, symName: __ZNSt3__117__libcpp_allocateB8ue170006Emm, symObjAddr: 0x5C50, symBinAddr: 0x1000090F4, symSize: 0x28 }
  - { offsetInCU: 0xBC22, offset: 0x1BB40, size: 0x8, addend: 0x0, symName: __ZNSt3__121__libcpp_operator_newB8ue170006IJmEEEPvDpT_, symObjAddr: 0x5C98, symBinAddr: 0x10000913C, symSize: 0x24 }
  - { offsetInCU: 0xBC5B, offset: 0x1BB79, size: 0x8, addend: 0x0, symName: __ZNSt3__127__tree_balance_after_insertB8ue170006IPNS_16__tree_node_baseIPvEEEEvT_S5_, symObjAddr: 0x5ED8, symBinAddr: 0x10000937C, symSize: 0x27C }
  - { offsetInCU: 0xBCD9, offset: 0x1BBF7, size: 0x8, addend: 0x0, symName: __ZNSt3__118__tree_left_rotateB8ue170006IPNS_16__tree_node_baseIPvEEEEvT_, symObjAddr: 0x6154, symBinAddr: 0x1000095F8, symSize: 0xEC }
  - { offsetInCU: 0xBD1C, offset: 0x1BC3A, size: 0x8, addend: 0x0, symName: __ZNSt3__119__tree_right_rotateB8ue170006IPNS_16__tree_node_baseIPvEEEEvT_, symObjAddr: 0x6240, symBinAddr: 0x1000096E4, symSize: 0xCC }
  - { offsetInCU: 0xBD5F, offset: 0x1BC7D, size: 0x8, addend: 0x0, symName: __ZNSt3__112__to_addressB8ue170006IcEEPT_S2_, symObjAddr: 0x69C4, symBinAddr: 0x100009E68, symSize: 0x14 }
  - { offsetInCU: 0xBFA0, offset: 0x1BEBE, size: 0x8, addend: 0x0, symName: __ZNSt3__120__throw_length_errorB8ue170006EPKc, symObjAddr: 0x6E90, symBinAddr: 0x10000A334, symSize: 0x64 }
  - { offsetInCU: 0xBFFE, offset: 0x1BF1C, size: 0x8, addend: 0x0, symName: __ZNSt3__14copyB8ue170006IPKcPcEET0_T_S5_S4_, symObjAddr: 0x701C, symBinAddr: 0x10000A4C0, symSize: 0x40 }
  - { offsetInCU: 0xC058, offset: 0x1BF76, size: 0x8, addend: 0x0, symName: __ZNSt3__16__copyB8ue170006INS_17_ClassicAlgPolicyEPKcS3_PcEENS_4pairIT0_T2_EES6_T1_S7_, symObjAddr: 0x705C, symBinAddr: 0x10000A500, symSize: 0x44 }
  - { offsetInCU: 0xC0C4, offset: 0x1BFE2, size: 0x8, addend: 0x0, symName: __ZNSt3__123__dispatch_copy_or_moveB8ue170006INS_17_ClassicAlgPolicyENS_11__copy_loopIS1_EENS_14__copy_trivialEPKcS6_PcEENS_4pairIT2_T4_EES9_T3_SA_, symObjAddr: 0x70A0, symBinAddr: 0x10000A544, symSize: 0x44 }
  - { offsetInCU: 0xC142, offset: 0x1C060, size: 0x8, addend: 0x0, symName: __ZNSt3__121__unwrap_and_dispatchB8ue170006INS_10__overloadINS_11__copy_loopINS_17_ClassicAlgPolicyEEENS_14__copy_trivialEEEPKcS8_PcLi0EEENS_4pairIT0_T2_EESB_T1_SC_, symObjAddr: 0x70E4, symBinAddr: 0x10000A588, symSize: 0xB4 }
  - { offsetInCU: 0xC1D1, offset: 0x1C0EF, size: 0x8, addend: 0x0, symName: __ZNSt3__114__unwrap_rangeB8ue170006IPKcS2_EENS_4pairIT0_S4_EET_S6_, symObjAddr: 0x7198, symBinAddr: 0x10000A63C, symSize: 0x60 }
  - { offsetInCU: 0xC311, offset: 0x1C22F, size: 0x8, addend: 0x0, symName: __ZNSt3__113__unwrap_iterB8ue170006IPcNS_18__unwrap_iter_implIS1_Lb1EEELi0EEEDTclsrT0_8__unwrapclsr3stdE7declvalIT_EEEES5_, symObjAddr: 0x7240, symBinAddr: 0x10000A6E4, symSize: 0x24 }
  - { offsetInCU: 0xC356, offset: 0x1C274, size: 0x8, addend: 0x0, symName: __ZNSt3__19make_pairB8ue170006IPKcPcEENS_4pairINS_18__unwrap_ref_decayIT_E4typeENS5_IT0_E4typeEEEOS6_OS9_, symObjAddr: 0x7264, symBinAddr: 0x10000A708, symSize: 0x38 }
  - { offsetInCU: 0xC3A5, offset: 0x1C2C3, size: 0x8, addend: 0x0, symName: __ZNSt3__114__rewrap_rangeB8ue170006IPKcS2_EET_S3_T0_, symObjAddr: 0x729C, symBinAddr: 0x10000A740, symSize: 0x2C }
  - { offsetInCU: 0xC3F1, offset: 0x1C30F, size: 0x8, addend: 0x0, symName: __ZNSt3__113__rewrap_iterB8ue170006IPcS1_NS_18__unwrap_iter_implIS1_Lb1EEEEET_S4_T0_, symObjAddr: 0x72C8, symBinAddr: 0x10000A76C, symSize: 0x50 }
  - { offsetInCU: 0xC446, offset: 0x1C364, size: 0x8, addend: 0x0, symName: __ZNSt3__19make_pairB8ue170006IPKcS2_EENS_4pairINS_18__unwrap_ref_decayIT_E4typeENS4_IT0_E4typeEEEOS5_OS8_, symObjAddr: 0x7318, symBinAddr: 0x10000A7BC, symSize: 0x38 }
  - { offsetInCU: 0xC495, offset: 0x1C3B3, size: 0x8, addend: 0x0, symName: __ZNSt3__113__unwrap_iterB8ue170006IPKcNS_18__unwrap_iter_implIS2_Lb1EEELi0EEEDTclsrT0_8__unwrapclsr3stdE7declvalIT_EEEES6_, symObjAddr: 0x7350, symBinAddr: 0x10000A7F4, symSize: 0x24 }
  - { offsetInCU: 0xC5DA, offset: 0x1C4F8, size: 0x8, addend: 0x0, symName: __ZNSt3__119__copy_trivial_implB8ue170006IKccEENS_4pairIPT_PT0_EES4_S4_S6_, symObjAddr: 0x7408, symBinAddr: 0x10000A8AC, symSize: 0x78 }
  - { offsetInCU: 0xC642, offset: 0x1C560, size: 0x8, addend: 0x0, symName: __ZNSt3__119__constexpr_memmoveB8ue170006IcKcLi0EEEPT_S3_PT0_NS_15__element_countE, symObjAddr: 0x7480, symBinAddr: 0x10000A924, symSize: 0xA0 }
  - { offsetInCU: 0xC6B1, offset: 0x1C5CF, size: 0x8, addend: 0x0, symName: __ZNSt3__19make_pairB8ue170006IRPKcPcEENS_4pairINS_18__unwrap_ref_decayIT_E4typeENS6_IT0_E4typeEEEOS7_OSA_, symObjAddr: 0x7520, symBinAddr: 0x10000A9C4, symSize: 0x38 }
  - { offsetInCU: 0xC753, offset: 0x1C671, size: 0x8, addend: 0x0, symName: __ZNSt3__113__rewrap_iterB8ue170006IPKcS2_NS_18__unwrap_iter_implIS2_Lb1EEEEET_S5_T0_, symObjAddr: 0x75EC, symBinAddr: 0x10000AA90, symSize: 0x50 }
  - { offsetInCU: 0xC7A8, offset: 0x1C6C6, size: 0x8, addend: 0x0, symName: __ZNSt3__16fill_nB8ue170006IPcmcEET_S2_T0_RKT1_, symObjAddr: 0x76CC, symBinAddr: 0x10000AB70, symSize: 0x44 }
  - { offsetInCU: 0xC80B, offset: 0x1C729, size: 0x8, addend: 0x0, symName: __ZNSt3__18__fill_nB8ue170006IPcmcEET_S2_T0_RKT1_, symObjAddr: 0x7710, symBinAddr: 0x10000ABB4, symSize: 0x64 }
  - { offsetInCU: 0xC86E, offset: 0x1C78C, size: 0x8, addend: 0x0, symName: __ZNSt3__121__convert_to_integralB8ue170006Em, symObjAddr: 0x7774, symBinAddr: 0x10000AC18, symSize: 0x14 }
  - { offsetInCU: 0xC8CD, offset: 0x1C7EB, size: 0x8, addend: 0x0, symName: __ZNSt3__113__tree_removeB8ue170006IPNS_16__tree_node_baseIPvEEEEvT_S5_, symObjAddr: 0x84B4, symBinAddr: 0x10000B634, symSize: 0x6E0 }
  - { offsetInCU: 0xC94F, offset: 0x1C86D, size: 0x8, addend: 0x0, symName: __ZNSt3__111__tree_nextB8ue170006IPNS_16__tree_node_baseIPvEEEET_S5_, symObjAddr: 0x8BB4, symBinAddr: 0x10000BD34, symSize: 0x80 }
  - { offsetInCU: 0xCB75, offset: 0x1CA93, size: 0x8, addend: 0x0, symName: __ZSt28__throw_bad_array_new_lengthB8ue170006v, symObjAddr: 0x5C1C, symBinAddr: 0x1000090C0, symSize: 0x34 }
  - { offsetInCU: 0xDC12, offset: 0x1DB30, size: 0x8, addend: 0x0, symName: __ZN6Server6serverE, symObjAddr: 0x68FE8, symBinAddr: 0x100038020, symSize: 0x0 }
  - { offsetInCU: 0xE3B9, offset: 0x1E2D7, size: 0x8, addend: 0x0, symName: __Z7isdigiti, symObjAddr: 0x2630, symBinAddr: 0x100006BD8, symSize: 0x28 }
  - { offsetInCU: 0xFBB4, offset: 0x1FAD2, size: 0x8, addend: 0x0, symName: __ZNSt3__112basic_stringIcNS_11char_traitsIcEENS_9allocatorIcEEEC1B8ue170006ILi0EEEPKc, symObjAddr: 0x0, symBinAddr: 0x100004758, symSize: 0x34 }
  - { offsetInCU: 0xFBF3, offset: 0x1FB11, size: 0x8, addend: 0x0, symName: __ZN6Server9clear_allEv, symObjAddr: 0x34, symBinAddr: 0x10000478C, symSize: 0x9C }
  - { offsetInCU: 0xFC36, offset: 0x1FB54, size: 0x8, addend: 0x0, symName: __ZNSt3__13mapINS_12basic_stringIcNS_11char_traitsIcEENS_9allocatorIcEEEE7ChannelNS_4lessIS6_EENS4_INS_4pairIKS6_S7_EEEEE5beginB8ue170006Ev, symObjAddr: 0xD0, symBinAddr: 0x100004828, symSize: 0x38 }
  - { offsetInCU: 0xFC5A, offset: 0x1FB78, size: 0x8, addend: 0x0, symName: __ZNSt3__13mapINS_12basic_stringIcNS_11char_traitsIcEENS_9allocatorIcEEEE7ChannelNS_4lessIS6_EENS4_INS_4pairIKS6_S7_EEEEE3endB8ue170006Ev, symObjAddr: 0x138, symBinAddr: 0x100004890, symSize: 0x38 }
  - { offsetInCU: 0xFC7E, offset: 0x1FB9C, size: 0x8, addend: 0x0, symName: __ZNKSt3__114__map_iteratorINS_15__tree_iteratorINS_12__value_typeINS_12basic_stringIcNS_11char_traitsIcEENS_9allocatorIcEEEE7ChannelEEPNS_11__tree_nodeISA_PvEElEEEptB8ue170006Ev, symObjAddr: 0x170, symBinAddr: 0x1000048C8, symSize: 0x2C }
  - { offsetInCU: 0xFCA2, offset: 0x1FBC0, size: 0x8, addend: 0x0, symName: __ZNSt3__114__map_iteratorINS_15__tree_iteratorINS_12__value_typeINS_12basic_stringIcNS_11char_traitsIcEENS_9allocatorIcEEEE7ChannelEEPNS_11__tree_nodeISA_PvEElEEEppB8ue170006Ev, symObjAddr: 0x19C, symBinAddr: 0x1000048F4, symSize: 0x2C }
  - { offsetInCU: 0xFCC6, offset: 0x1FBE4, size: 0x8, addend: 0x0, symName: __ZNSt3__13mapINS_12basic_stringIcNS_11char_traitsIcEENS_9allocatorIcEEEE6ClientNS_4lessIS6_EENS4_INS_4pairIKS6_S7_EEEEE5clearB8ue170006Ev, symObjAddr: 0x1C8, symBinAddr: 0x100004920, symSize: 0x24 }
  - { offsetInCU: 0xFCEA, offset: 0x1FC08, size: 0x8, addend: 0x0, symName: __ZNSt3__13mapINS_12basic_stringIcNS_11char_traitsIcEENS_9allocatorIcEEEE7ChannelNS_4lessIS6_EENS4_INS_4pairIKS6_S7_EEEEE5clearB8ue170006Ev, symObjAddr: 0x1EC, symBinAddr: 0x100004944, symSize: 0x24 }
  - { offsetInCU: 0xFD0E, offset: 0x1FC2C, size: 0x8, addend: 0x0, symName: __ZN6Server11serv_handleEi, symObjAddr: 0x210, symBinAddr: 0x100004968, symSize: 0x190 }
  - { offsetInCU: 0xFD33, offset: 0x1FC51, size: 0x8, addend: 0x0, symName: __ZN6Server10get_clientEv, symObjAddr: 0x3E8, symBinAddr: 0x100004B40, symSize: 0x18 }
  - { offsetInCU: 0xFD5A, offset: 0x1FC78, size: 0x8, addend: 0x0, symName: __ZN6Server9to_stringEi, symObjAddr: 0x400, symBinAddr: 0x100004B58, symSize: 0x144 }
  - { offsetInCU: 0xFE7A, offset: 0x1FD98, size: 0x8, addend: 0x0, symName: __ZNSt3__118basic_stringstreamIcNS_11char_traitsIcEENS_9allocatorIcEEEC1B8ue170006Ev, symObjAddr: 0x544, symBinAddr: 0x100004C9C, symSize: 0x110 }
  - { offsetInCU: 0xFEA3, offset: 0x1FDC1, size: 0x8, addend: 0x0, symName: __ZNSt3__118basic_stringstreamIcNS_11char_traitsIcEENS_9allocatorIcEEE3strB8ue170006ERKNS_12basic_stringIcS2_S4_EE, symObjAddr: 0x654, symBinAddr: 0x100004DAC, symSize: 0x30 }
  - { offsetInCU: 0xFED6, offset: 0x1FDF4, size: 0x8, addend: 0x0, symName: __ZNSt3__19basic_iosIcNS_11char_traitsIcEEE5clearB8ue170006Ej, symObjAddr: 0x690, symBinAddr: 0x100004DDC, symSize: 0x2C }
  - { offsetInCU: 0xFF09, offset: 0x1FE27, size: 0x8, addend: 0x0, symName: __ZNKSt3__118basic_stringstreamIcNS_11char_traitsIcEENS_9allocatorIcEEE3strB8ue170006Ev, symObjAddr: 0x6BC, symBinAddr: 0x100004E08, symSize: 0x30 }
  - { offsetInCU: 0xFF32, offset: 0x1FE50, size: 0x8, addend: 0x0, symName: __ZNSt3__118basic_stringstreamIcNS_11char_traitsIcEENS_9allocatorIcEEED1Ev, symObjAddr: 0x6EC, symBinAddr: 0x100004E38, symSize: 0x70 }
  - { offsetInCU: 0xFF5E, offset: 0x1FE7C, size: 0x8, addend: 0x0, symName: __ZN6Server10set_serverEv, symObjAddr: 0x75C, symBinAddr: 0x100004EA8, symSize: 0x26C }
  - { offsetInCU: 0xFFB5, offset: 0x1FED3, size: 0x8, addend: 0x0, symName: __ZL12_OSSwapInt16t, symObjAddr: 0x9C8, symBinAddr: 0x100005114, symSize: 0x24 }
  - { offsetInCU: 0x10070, offset: 0x1FF8E, size: 0x8, addend: 0x0, symName: __ZN6Server18accept_connectionsEv, symObjAddr: 0x9EC, symBinAddr: 0x100005138, symSize: 0x3A0 }
  - { offsetInCU: 0x101D5, offset: 0x200F3, size: 0x8, addend: 0x0, symName: __ZN6Server12authenticateER6Client, symObjAddr: 0xD8C, symBinAddr: 0x1000054D8, symSize: 0xCE4 }
  - { offsetInCU: 0x10263, offset: 0x20181, size: 0x8, addend: 0x0, symName: __ZNSt3__13mapINS_12basic_stringIcNS_11char_traitsIcEENS_9allocatorIcEEEE6ClientNS_4lessIS6_EENS4_INS_4pairIKS6_S7_EEEEEixERSB_, symObjAddr: 0x1AA4, symBinAddr: 0x1000061F0, symSize: 0xC8 }
  - { offsetInCU: 0x102DF, offset: 0x201FD, size: 0x8, addend: 0x0, symName: __ZNSt3__112basic_stringIcNS_11char_traitsIcEENS_9allocatorIcEEEC1B8ue170006Ev, symObjAddr: 0x1B6C, symBinAddr: 0x1000062B8, symSize: 0x2C }
  - { offsetInCU: 0x10308, offset: 0x20226, size: 0x8, addend: 0x0, symName: __ZN6Server17handle_connectionEi, symObjAddr: 0x1FAC, symBinAddr: 0x100006580, symSize: 0x198 }
  - { offsetInCU: 0x1034B, offset: 0x20269, size: 0x8, addend: 0x0, symName: __ZNSt3__13mapINS_12basic_stringIcNS_11char_traitsIcEENS_9allocatorIcEEEE6ClientNS_4lessIS6_EENS4_INS_4pairIKS6_S7_EEEEE4findB8ue170006ERSB_, symObjAddr: 0x2144, symBinAddr: 0x100006718, symSize: 0x40 }
  - { offsetInCU: 0x1037E, offset: 0x2029C, size: 0x8, addend: 0x0, symName: __ZN6Server21accept_new_connectionEi, symObjAddr: 0x2184, symBinAddr: 0x100006758, symSize: 0x1D8 }
  - { offsetInCU: 0x103DF, offset: 0x202FD, size: 0x8, addend: 0x0, symName: __ZN6Server10get_serverEv, symObjAddr: 0x2388, symBinAddr: 0x100006930, symSize: 0xC }
  - { offsetInCU: 0x103F5, offset: 0x20313, size: 0x8, addend: 0x0, symName: __ZN6ServerC2EPPc, symObjAddr: 0x2394, symBinAddr: 0x10000693C, symSize: 0x244 }
  - { offsetInCU: 0x10441, offset: 0x2035F, size: 0x8, addend: 0x0, symName: __ZNSt3__13mapINS_12basic_stringIcNS_11char_traitsIcEENS_9allocatorIcEEEE6ClientNS_4lessIS6_EENS4_INS_4pairIKS6_S7_EEEEEC1B8ue170006Ev, symObjAddr: 0x25D8, symBinAddr: 0x100006B80, symSize: 0x2C }
  - { offsetInCU: 0x1046A, offset: 0x20388, size: 0x8, addend: 0x0, symName: __ZNSt3__13mapINS_12basic_stringIcNS_11char_traitsIcEENS_9allocatorIcEEEE7ChannelNS_4lessIS6_EENS4_INS_4pairIKS6_S7_EEEEEC1B8ue170006Ev, symObjAddr: 0x2604, symBinAddr: 0x100006BAC, symSize: 0x2C }
  - { offsetInCU: 0x10493, offset: 0x203B1, size: 0x8, addend: 0x0, symName: __ZNSt3__112basic_stringIcNS_11char_traitsIcEENS_9allocatorIcEEEaSB8ue170006EPKc, symObjAddr: 0x2658, symBinAddr: 0x100006C00, symSize: 0x2C }
  - { offsetInCU: 0x104C6, offset: 0x203E4, size: 0x8, addend: 0x0, symName: __ZN6ServerC1EPPc, symObjAddr: 0x26DC, symBinAddr: 0x100006C2C, symSize: 0x34 }
  - { offsetInCU: 0x104FE, offset: 0x2041C, size: 0x8, addend: 0x0, symName: __ZN6Server8get_passEv, symObjAddr: 0x2710, symBinAddr: 0x100006C60, symSize: 0x30 }
  - { offsetInCU: 0x10514, offset: 0x20432, size: 0x8, addend: 0x0, symName: __ZN6Server11commandQuitEP6ClientNSt3__112basic_stringIcNS2_11char_traitsIcEENS2_9allocatorIcEEEE, symObjAddr: 0x2740, symBinAddr: 0x100006C90, symSize: 0x34C }
  - { offsetInCU: 0x10589, offset: 0x204A7, size: 0x8, addend: 0x0, symName: __ZNSt3__114__map_iteratorINS_15__tree_iteratorINS_12__value_typeINS_12basic_stringIcNS_11char_traitsIcEENS_9allocatorIcEEEE7ChannelEEPNS_11__tree_nodeISA_PvEElEEEppB8ue170006Ei, symObjAddr: 0x2A8C, symBinAddr: 0x100006FDC, symSize: 0x34 }
  - { offsetInCU: 0x105C9, offset: 0x204E7, size: 0x8, addend: 0x0, symName: __ZNKSt3__114__map_iteratorINS_15__tree_iteratorINS_12__value_typeINS_12basic_stringIcNS_11char_traitsIcEENS_9allocatorIcEEEE6ClientEEPNS_11__tree_nodeISA_PvEElEEEptB8ue170006Ev, symObjAddr: 0x2AC0, symBinAddr: 0x100007010, symSize: 0x2C }
  - { offsetInCU: 0x105ED, offset: 0x2050B, size: 0x8, addend: 0x0, symName: __ZNSt3__13mapINS_12basic_stringIcNS_11char_traitsIcEENS_9allocatorIcEEEE6ClientNS_4lessIS6_EENS4_INS_4pairIKS6_S7_EEEEE5eraseB8ue170006ERSB_, symObjAddr: 0x2AEC, symBinAddr: 0x10000703C, symSize: 0x2C }
  - { offsetInCU: 0x10620, offset: 0x2053E, size: 0x8, addend: 0x0, symName: __ZNSt3__118basic_stringstreamIcNS_11char_traitsIcEENS_9allocatorIcEEED2Ev, symObjAddr: 0x2B18, symBinAddr: 0x100007068, symSize: 0xA4 }
  - { offsetInCU: 0x10658, offset: 0x20576, size: 0x8, addend: 0x0, symName: __ZThn16_NSt3__118basic_stringstreamIcNS_11char_traitsIcEENS_9allocatorIcEEED1Ev, symObjAddr: 0x2BBC, symBinAddr: 0x10000710C, symSize: 0x1C }
  - { offsetInCU: 0x1066F, offset: 0x2058D, size: 0x8, addend: 0x0, symName: __ZTv0_n24_NSt3__118basic_stringstreamIcNS_11char_traitsIcEENS_9allocatorIcEEED1Ev, symObjAddr: 0x2BD8, symBinAddr: 0x100007128, symSize: 0x28 }
  - { offsetInCU: 0x1068B, offset: 0x205A9, size: 0x8, addend: 0x0, symName: __ZNSt3__115basic_stringbufIcNS_11char_traitsIcEENS_9allocatorIcEEED1Ev, symObjAddr: 0x2C00, symBinAddr: 0x100007150, symSize: 0x2C }
  - { offsetInCU: 0x106B7, offset: 0x205D5, size: 0x8, addend: 0x0, symName: __ZNSt3__115basic_stringbufIcNS_11char_traitsIcEENS_9allocatorIcEEED2Ev, symObjAddr: 0x2C2C, symBinAddr: 0x10000717C, symSize: 0x78 }
  - { offsetInCU: 0x106E2, offset: 0x20600, size: 0x8, addend: 0x0, symName: __Z9__isctypeim, symObjAddr: 0x3430, symBinAddr: 0x1000071F4, symSize: 0x80 }
  - { offsetInCU: 0x1071D, offset: 0x2063B, size: 0x8, addend: 0x0, symName: __ZNSt3__112basic_stringIcNS_11char_traitsIcEENS_9allocatorIcEEEC2B8ue170006ILi0EEEPKc, symObjAddr: 0x34B0, symBinAddr: 0x100007274, symSize: 0x58 }
  - { offsetInCU: 0x10761, offset: 0x2067F, size: 0x8, addend: 0x0, symName: __ZNSt3__117__compressed_pairINS_12basic_stringIcNS_11char_traitsIcEENS_9allocatorIcEEE5__repES5_EC1B8ue170006INS_18__default_init_tagESA_EEOT_OT0_, symObjAddr: 0x3508, symBinAddr: 0x1000072CC, symSize: 0x3C }
  - { offsetInCU: 0x107B8, offset: 0x206D6, size: 0x8, addend: 0x0, symName: __ZNSt3__111char_traitsIcE6lengthB8ue170006EPKc, symObjAddr: 0x3544, symBinAddr: 0x100007308, symSize: 0x48 }
  - { offsetInCU: 0x107DB, offset: 0x206F9, size: 0x8, addend: 0x0, symName: __ZNSt3__117__compressed_pairINS_12basic_stringIcNS_11char_traitsIcEENS_9allocatorIcEEE5__repES5_EC2B8ue170006INS_18__default_init_tagESA_EEOT_OT0_, symObjAddr: 0x358C, symBinAddr: 0x100007350, symSize: 0x3C }
  - { offsetInCU: 0x10832, offset: 0x20750, size: 0x8, addend: 0x0, symName: __ZNSt3__122__compressed_pair_elemINS_12basic_stringIcNS_11char_traitsIcEENS_9allocatorIcEEE5__repELi0ELb0EEC2B8ue170006ENS_18__default_init_tagE, symObjAddr: 0x35C8, symBinAddr: 0x10000738C, symSize: 0x14 }
  - { offsetInCU: 0x10866, offset: 0x20784, size: 0x8, addend: 0x0, symName: __ZNSt3__122__compressed_pair_elemINS_9allocatorIcEELi1ELb1EEC2B8ue170006ENS_18__default_init_tagE, symObjAddr: 0x35DC, symBinAddr: 0x1000073A0, symSize: 0x2C }
  - { offsetInCU: 0x1089A, offset: 0x207B8, size: 0x8, addend: 0x0, symName: __ZNSt3__19allocatorIcEC2B8ue170006Ev, symObjAddr: 0x3608, symBinAddr: 0x1000073CC, symSize: 0x2C }
  - { offsetInCU: 0x108C3, offset: 0x207E1, size: 0x8, addend: 0x0, symName: __ZNSt3__116__non_trivial_ifILb1ENS_9allocatorIcEEEC2B8ue170006Ev, symObjAddr: 0x3634, symBinAddr: 0x1000073F8, symSize: 0x14 }
  - { offsetInCU: 0x108EC, offset: 0x2080A, size: 0x8, addend: 0x0, symName: __ZNSt3__16__treeINS_12__value_typeINS_12basic_stringIcNS_11char_traitsIcEENS_9allocatorIcEEEE7ChannelEENS_19__map_value_compareIS7_S9_NS_4lessIS7_EELb1EEENS5_IS9_EEE5beginB8ue170006Ev, symObjAddr: 0x366C, symBinAddr: 0x100007430, symSize: 0x34 }
  - { offsetInCU: 0x10910, offset: 0x2082E, size: 0x8, addend: 0x0, symName: __ZNSt3__114__map_iteratorINS_15__tree_iteratorINS_12__value_typeINS_12basic_stringIcNS_11char_traitsIcEENS_9allocatorIcEEEE7ChannelEEPNS_11__tree_nodeISA_PvEElEEEC1B8ue170006ESF_, symObjAddr: 0x36A0, symBinAddr: 0x100007464, symSize: 0x34 }
  - { offsetInCU: 0x10948, offset: 0x20866, size: 0x8, addend: 0x0, symName: __ZNSt3__16__treeINS_12__value_typeINS_12basic_stringIcNS_11char_traitsIcEENS_9allocatorIcEEEE7ChannelEENS_19__map_value_compareIS7_S9_NS_4lessIS7_EELb1EEENS5_IS9_EEE12__begin_nodeB8ue170006Ev, symObjAddr: 0x36D4, symBinAddr: 0x100007498, symSize: 0x14 }
  - { offsetInCU: 0x1096D, offset: 0x2088B, size: 0x8, addend: 0x0, symName: __ZNSt3__115__tree_iteratorINS_12__value_typeINS_12basic_stringIcNS_11char_traitsIcEENS_9allocatorIcEEEE7ChannelEEPNS_11__tree_nodeIS9_PvEElEC1B8ue170006EPNS_15__tree_end_nodeIPNS_16__tree_node_baseISB_EEEE, symObjAddr: 0x36E8, symBinAddr: 0x1000074AC, symSize: 0x34 }
  - { offsetInCU: 0x109A5, offset: 0x208C3, size: 0x8, addend: 0x0, symName: __ZNSt3__115__tree_iteratorINS_12__value_typeINS_12basic_stringIcNS_11char_traitsIcEENS_9allocatorIcEEEE7ChannelEEPNS_11__tree_nodeIS9_PvEElEC2B8ue170006EPNS_15__tree_end_nodeIPNS_16__tree_node_baseISB_EEEE, symObjAddr: 0x371C, symBinAddr: 0x1000074E0, symSize: 0x20 }
  - { offsetInCU: 0x109DD, offset: 0x208FB, size: 0x8, addend: 0x0, symName: __ZNSt3__114__map_iteratorINS_15__tree_iteratorINS_12__value_typeINS_12basic_stringIcNS_11char_traitsIcEENS_9allocatorIcEEEE7ChannelEEPNS_11__tree_nodeISA_PvEElEEEC2B8ue170006ESF_, symObjAddr: 0x373C, symBinAddr: 0x100007500, symSize: 0x20 }
  - { offsetInCU: 0x10A15, offset: 0x20933, size: 0x8, addend: 0x0, symName: __ZNSt3__16__treeINS_12__value_typeINS_12basic_stringIcNS_11char_traitsIcEENS_9allocatorIcEEEE7ChannelEENS_19__map_value_compareIS7_S9_NS_4lessIS7_EELb1EEENS5_IS9_EEE3endB8ue170006Ev, symObjAddr: 0x375C, symBinAddr: 0x100007520, symSize: 0x34 }
  - { offsetInCU: 0x10A39, offset: 0x20957, size: 0x8, addend: 0x0, symName: __ZNSt3__16__treeINS_12__value_typeINS_12basic_stringIcNS_11char_traitsIcEENS_9allocatorIcEEEE7ChannelEENS_19__map_value_compareIS7_S9_NS_4lessIS7_EELb1EEENS5_IS9_EEE10__end_nodeB8ue170006Ev, symObjAddr: 0x3790, symBinAddr: 0x100007554, symSize: 0x2C }
  - { offsetInCU: 0x10A5D, offset: 0x2097B, size: 0x8, addend: 0x0, symName: __ZNSt3__117__compressed_pairINS_15__tree_end_nodeIPNS_16__tree_node_baseIPvEEEENS_9allocatorINS_11__tree_nodeINS_12__value_typeINS_12basic_stringIcNS_11char_traitsIcEENS7_IcEEEE7ChannelEES3_EEEEE5firstB8ue170006Ev, symObjAddr: 0x37D0, symBinAddr: 0x100007580, symSize: 0x24 }
  - { offsetInCU: 0x10A81, offset: 0x2099F, size: 0x8, addend: 0x0, symName: __ZNSt3__115__tree_iteratorINS_12__value_typeINS_12basic_stringIcNS_11char_traitsIcEENS_9allocatorIcEEEE7ChannelEEPNS_11__tree_nodeIS9_PvEElEppB8ue170006Ev, symObjAddr: 0x386C, symBinAddr: 0x100007608, symSize: 0x38 }
  - { offsetInCU: 0x10AA5, offset: 0x209C3, size: 0x8, addend: 0x0, symName: __ZNSt3__114pointer_traitsIPNS_4pairIKNS_12basic_stringIcNS_11char_traitsIcEENS_9allocatorIcEEEE7ChannelEEE10pointer_toB8ue170006ERSA_, symObjAddr: 0x39CC, symBinAddr: 0x100007640, symSize: 0x14 }
  - { offsetInCU: 0x10AC8, offset: 0x209E6, size: 0x8, addend: 0x0, symName: __ZNKSt3__115__tree_iteratorINS_12__value_typeINS_12basic_stringIcNS_11char_traitsIcEENS_9allocatorIcEEEE7ChannelEEPNS_11__tree_nodeIS9_PvEElEptB8ue170006Ev, symObjAddr: 0x39E0, symBinAddr: 0x100007654, symSize: 0x2C }
  - { offsetInCU: 0x10AEC, offset: 0x20A0A, size: 0x8, addend: 0x0, symName: __ZNSt3__114pointer_traitsIPNS_12__value_typeINS_12basic_stringIcNS_11char_traitsIcEENS_9allocatorIcEEEE7ChannelEEE10pointer_toB8ue170006ERS9_, symObjAddr: 0x3A20, symBinAddr: 0x100007680, symSize: 0x14 }
  - { offsetInCU: 0x10B0F, offset: 0x20A2D, size: 0x8, addend: 0x0, symName: __ZNKSt3__115__tree_iteratorINS_12__value_typeINS_12basic_stringIcNS_11char_traitsIcEENS_9allocatorIcEEEE7ChannelEEPNS_11__tree_nodeIS9_PvEElE8__get_npB8ue170006Ev, symObjAddr: 0x3A34, symBinAddr: 0x100007694, symSize: 0x18 }
  - { offsetInCU: 0x10B34, offset: 0x20A52, size: 0x8, addend: 0x0, symName: __ZNSt3__16__treeINS_12__value_typeINS_12basic_stringIcNS_11char_traitsIcEENS_9allocatorIcEEEE6ClientEENS_19__map_value_compareIS7_S9_NS_4lessIS7_EELb1EEENS5_IS9_EEE5clearEv, symObjAddr: 0x3A4C, symBinAddr: 0x1000076AC, symSize: 0x74 }
  - { offsetInCU: 0x10B5B, offset: 0x20A79, size: 0x8, addend: 0x0, symName: __ZNSt3__16__treeINS_12__value_typeINS_12basic_stringIcNS_11char_traitsIcEENS_9allocatorIcEEEE6ClientEENS_19__map_value_compareIS7_S9_NS_4lessIS7_EELb1EEENS5_IS9_EEE4sizeB8ue170006Ev, symObjAddr: 0x3BA8, symBinAddr: 0x100007720, symSize: 0x28 }
  - { offsetInCU: 0x10B7F, offset: 0x20A9D, size: 0x8, addend: 0x0, symName: __ZNSt3__117__compressed_pairImNS_19__map_value_compareINS_12basic_stringIcNS_11char_traitsIcEENS_9allocatorIcEEEENS_12__value_typeIS7_6ClientEENS_4lessIS7_EELb1EEEE5firstB8ue170006Ev, symObjAddr: 0x3E70, symBinAddr: 0x100007748, symSize: 0x24 }
  - { offsetInCU: 0x10BA3, offset: 0x20AC1, size: 0x8, addend: 0x0, symName: __ZNSt3__122__compressed_pair_elemImLi0ELb0EE5__getB8ue170006Ev, symObjAddr: 0x3E94, symBinAddr: 0x10000776C, symSize: 0x14 }
  - { offsetInCU: 0x10BC8, offset: 0x20AE6, size: 0x8, addend: 0x0, symName: __ZNSt3__16__treeINS_12__value_typeINS_12basic_stringIcNS_11char_traitsIcEENS_9allocatorIcEEEE7ChannelEENS_19__map_value_compareIS7_S9_NS_4lessIS7_EELb1EEENS5_IS9_EEE5clearEv, symObjAddr: 0x3ECC, symBinAddr: 0x100007780, symSize: 0x74 }
  - { offsetInCU: 0x10BEF, offset: 0x20B0D, size: 0x8, addend: 0x0, symName: __ZNSt3__16__treeINS_12__value_typeINS_12basic_stringIcNS_11char_traitsIcEENS_9allocatorIcEEEE7ChannelEENS_19__map_value_compareIS7_S9_NS_4lessIS7_EELb1EEENS5_IS9_EEE4sizeB8ue170006Ev, symObjAddr: 0x4028, symBinAddr: 0x1000077F4, symSize: 0x28 }
  - { offsetInCU: 0x10C13, offset: 0x20B31, size: 0x8, addend: 0x0, symName: __ZNSt3__117__compressed_pairImNS_19__map_value_compareINS_12basic_stringIcNS_11char_traitsIcEENS_9allocatorIcEEEENS_12__value_typeIS7_7ChannelEENS_4lessIS7_EELb1EEEE5firstB8ue170006Ev, symObjAddr: 0x4288, symBinAddr: 0x10000781C, symSize: 0x24 }
  - { offsetInCU: 0x10C55, offset: 0x20B73, size: 0x8, addend: 0x0, symName: __ZNKSt3__113basic_ostreamIcNS_11char_traitsIcEEE6sentrycvbB8ue170006Ev, symObjAddr: 0x44A0, symBinAddr: 0x100007A34, symSize: 0x1C }
  - { offsetInCU: 0x10C7A, offset: 0x20B98, size: 0x8, addend: 0x0, symName: __ZNSt3__119ostreambuf_iteratorIcNS_11char_traitsIcEEEC1B8ue170006ERNS_13basic_ostreamIcS2_EE, symObjAddr: 0x4704, symBinAddr: 0x100007C98, symSize: 0x34 }
  - { offsetInCU: 0x10CB1, offset: 0x20BCF, size: 0x8, addend: 0x0, symName: __ZNKSt3__18ios_base5flagsB8ue170006Ev, symObjAddr: 0x4738, symBinAddr: 0x100007CCC, symSize: 0x18 }
  - { offsetInCU: 0x10CD8, offset: 0x20BF6, size: 0x8, addend: 0x0, symName: __ZNKSt3__19basic_iosIcNS_11char_traitsIcEEE4fillB8ue170006Ev, symObjAddr: 0x4750, symBinAddr: 0x100007CE4, symSize: 0x64 }
  - { offsetInCU: 0x10CFF, offset: 0x20C1D, size: 0x8, addend: 0x0, symName: __ZNKSt3__119ostreambuf_iteratorIcNS_11char_traitsIcEEE6failedB8ue170006Ev, symObjAddr: 0x47B4, symBinAddr: 0x100007D48, symSize: 0x24 }
  - { offsetInCU: 0x10D24, offset: 0x20C42, size: 0x8, addend: 0x0, symName: __ZNSt3__19basic_iosIcNS_11char_traitsIcEEE8setstateB8ue170006Ej, symObjAddr: 0x47D8, symBinAddr: 0x100007D6C, symSize: 0x2C }
  - { offsetInCU: 0x10D57, offset: 0x20C75, size: 0x8, addend: 0x0, symName: __ZNKSt3__18ios_base5widthB8ue170006Ev, symObjAddr: 0x4804, symBinAddr: 0x100007D98, symSize: 0x18 }
  - { offsetInCU: 0x10D7E, offset: 0x20C9C, size: 0x8, addend: 0x0, symName: __ZNSt3__115basic_streambufIcNS_11char_traitsIcEEE5sputnB8ue170006EPKcl, symObjAddr: 0x481C, symBinAddr: 0x100007DB0, symSize: 0x3C }
  - { offsetInCU: 0x10DBE, offset: 0x20CDC, size: 0x8, addend: 0x0, symName: __ZNSt3__112basic_stringIcNS_11char_traitsIcEENS_9allocatorIcEEEC1B8ue170006Emc, symObjAddr: 0x4858, symBinAddr: 0x100007DEC, symSize: 0x3C }
  - { offsetInCU: 0x10E05, offset: 0x20D23, size: 0x8, addend: 0x0, symName: __ZNKSt3__112basic_stringIcNS_11char_traitsIcEENS_9allocatorIcEEE4dataB8ue170006Ev, symObjAddr: 0x4894, symBinAddr: 0x100007E28, symSize: 0x28 }
  - { offsetInCU: 0x10E29, offset: 0x20D47, size: 0x8, addend: 0x0, symName: __ZNSt3__18ios_base5widthB8ue170006El, symObjAddr: 0x48BC, symBinAddr: 0x100007E50, symSize: 0x2C }
  - { offsetInCU: 0x10E6F, offset: 0x20D8D, size: 0x8, addend: 0x0, symName: __ZNSt3__112basic_stringIcNS_11char_traitsIcEENS_9allocatorIcEEEC2B8ue170006Emc, symObjAddr: 0x48E8, symBinAddr: 0x100007E7C, symSize: 0x4C }
  - { offsetInCU: 0x10EB6, offset: 0x20DD4, size: 0x8, addend: 0x0, symName: __ZNKSt3__112basic_stringIcNS_11char_traitsIcEENS_9allocatorIcEEE13__get_pointerB8ue170006Ev, symObjAddr: 0x4948, symBinAddr: 0x100007EDC, symSize: 0x54 }
  - { offsetInCU: 0x10EDA, offset: 0x20DF8, size: 0x8, addend: 0x0, symName: __ZNKSt3__112basic_stringIcNS_11char_traitsIcEENS_9allocatorIcEEE9__is_longB8ue170006Ev, symObjAddr: 0x499C, symBinAddr: 0x100007F30, symSize: 0x74 }
  - { offsetInCU: 0x10EFE, offset: 0x20E1C, size: 0x8, addend: 0x0, symName: __ZNKSt3__112basic_stringIcNS_11char_traitsIcEENS_9allocatorIcEEE18__get_long_pointerB8ue170006Ev, symObjAddr: 0x4A10, symBinAddr: 0x100007FA4, symSize: 0x28 }
  - { offsetInCU: 0x10F22, offset: 0x20E40, size: 0x8, addend: 0x0, symName: __ZNKSt3__112basic_stringIcNS_11char_traitsIcEENS_9allocatorIcEEE19__get_short_pointerB8ue170006Ev, symObjAddr: 0x4A38, symBinAddr: 0x100007FCC, symSize: 0x28 }
  - { offsetInCU: 0x10F46, offset: 0x20E64, size: 0x8, addend: 0x0, symName: __ZNKSt3__117__compressed_pairINS_12basic_stringIcNS_11char_traitsIcEENS_9allocatorIcEEE5__repES5_E5firstB8ue170006Ev, symObjAddr: 0x4A60, symBinAddr: 0x100007FF4, symSize: 0x24 }
  - { offsetInCU: 0x10F6A, offset: 0x20E88, size: 0x8, addend: 0x0, symName: __ZNKSt3__122__compressed_pair_elemINS_12basic_stringIcNS_11char_traitsIcEENS_9allocatorIcEEE5__repELi0ELb0EE5__getB8ue170006Ev, symObjAddr: 0x4A84, symBinAddr: 0x100008018, symSize: 0x14 }
  - { offsetInCU: 0x10F8F, offset: 0x20EAD, size: 0x8, addend: 0x0, symName: __ZNSt3__114pointer_traitsIPKcE10pointer_toB8ue170006ERS1_, symObjAddr: 0x4A98, symBinAddr: 0x10000802C, symSize: 0x14 }
  - { offsetInCU: 0x10FB2, offset: 0x20ED0, size: 0x8, addend: 0x0, symName: __ZNSt3__119ostreambuf_iteratorIcNS_11char_traitsIcEEEC2B8ue170006ERNS_13basic_ostreamIcS2_EE, symObjAddr: 0x4AAC, symBinAddr: 0x100008040, symSize: 0x68 }
  - { offsetInCU: 0x10FE9, offset: 0x20F07, size: 0x8, addend: 0x0, symName: __ZNKSt3__19basic_iosIcNS_11char_traitsIcEEE5rdbufB8ue170006Ev, symObjAddr: 0x4B14, symBinAddr: 0x1000080A8, symSize: 0x24 }
  - { offsetInCU: 0x11010, offset: 0x20F2E, size: 0x8, addend: 0x0, symName: __ZNKSt3__18ios_base5rdbufB8ue170006Ev, symObjAddr: 0x4B38, symBinAddr: 0x1000080CC, symSize: 0x18 }
  - { offsetInCU: 0x11035, offset: 0x20F53, size: 0x8, addend: 0x0, symName: __ZNSt3__111char_traitsIcE11eq_int_typeB8ue170006Eii, symObjAddr: 0x4B50, symBinAddr: 0x1000080E4, symSize: 0x28 }
  - { offsetInCU: 0x11068, offset: 0x20F86, size: 0x8, addend: 0x0, symName: __ZNSt3__111char_traitsIcE3eofB8ue170006Ev, symObjAddr: 0x4B78, symBinAddr: 0x10000810C, symSize: 0x8 }
  - { offsetInCU: 0x1107C, offset: 0x20F9A, size: 0x8, addend: 0x0, symName: __ZNSt3__18ios_base8setstateB8ue170006Ej, symObjAddr: 0x4C70, symBinAddr: 0x100008114, symSize: 0x34 }
  - { offsetInCU: 0x110B2, offset: 0x20FD0, size: 0x8, addend: 0x0, symName: __ZNSt3__19basic_iosIcNS_11char_traitsIcEEEC2B8ue170006Ev, symObjAddr: 0x4CA4, symBinAddr: 0x100008148, symSize: 0x44 }
  - { offsetInCU: 0x110DB, offset: 0x20FF9, size: 0x8, addend: 0x0, symName: __ZNSt3__114basic_iostreamIcNS_11char_traitsIcEEEC2B8ue170006EPNS_15basic_streambufIcS2_EE, symObjAddr: 0x4CE8, symBinAddr: 0x10000818C, symSize: 0xB4 }
  - { offsetInCU: 0x1111F, offset: 0x2103D, size: 0x8, addend: 0x0, symName: __ZNSt3__115basic_stringbufIcNS_11char_traitsIcEENS_9allocatorIcEEEC1B8ue170006Ej, symObjAddr: 0x4D9C, symBinAddr: 0x100008240, symSize: 0x34 }
  - { offsetInCU: 0x11157, offset: 0x21075, size: 0x8, addend: 0x0, symName: __ZNSt3__18ios_baseC2B8ue170006Ev, symObjAddr: 0x4DD0, symBinAddr: 0x100008274, symSize: 0x24 }
  - { offsetInCU: 0x11180, offset: 0x2109E, size: 0x8, addend: 0x0, symName: __ZNSt3__113basic_istreamIcNS_11char_traitsIcEEEC2B8ue170006EPNS_15basic_streambufIcS2_EE, symObjAddr: 0x4DF4, symBinAddr: 0x100008298, symSize: 0x64 }
  - { offsetInCU: 0x111C3, offset: 0x210E1, size: 0x8, addend: 0x0, symName: __ZNSt3__113basic_ostreamIcNS_11char_traitsIcEEEC2B8ue170006Ev, symObjAddr: 0x4E58, symBinAddr: 0x1000082FC, symSize: 0x34 }
  - { offsetInCU: 0x111F8, offset: 0x21116, size: 0x8, addend: 0x0, symName: __ZNSt3__19basic_iosIcNS_11char_traitsIcEEE4initB8ue170006EPNS_15basic_streambufIcS2_EE, symObjAddr: 0x4E8C, symBinAddr: 0x100008330, symSize: 0x44 }
  - { offsetInCU: 0x1122E, offset: 0x2114C, size: 0x8, addend: 0x0, symName: __ZNSt3__115basic_stringbufIcNS_11char_traitsIcEENS_9allocatorIcEEEC2B8ue170006Ej, symObjAddr: 0x4ED0, symBinAddr: 0x100008374, symSize: 0x90 }
  - { offsetInCU: 0x11266, offset: 0x21184, size: 0x8, addend: 0x0, symName: __ZNKSt3__112basic_stringIcNS_11char_traitsIcEENS_9allocatorIcEEE4sizeB8ue170006Ev, symObjAddr: 0x5020, symBinAddr: 0x1000084C4, symSize: 0x54 }
  - { offsetInCU: 0x1128A, offset: 0x211A8, size: 0x8, addend: 0x0, symName: __ZNKSt3__112basic_stringIcNS_11char_traitsIcEENS_9allocatorIcEEE15__get_long_sizeB8ue170006Ev, symObjAddr: 0x5074, symBinAddr: 0x100008518, symSize: 0x28 }
  - { offsetInCU: 0x112AE, offset: 0x211CC, size: 0x8, addend: 0x0, symName: __ZNKSt3__112basic_stringIcNS_11char_traitsIcEENS_9allocatorIcEEE16__get_short_sizeB8ue170006Ev, symObjAddr: 0x509C, symBinAddr: 0x100008540, symSize: 0x34 }
  - { offsetInCU: 0x112D2, offset: 0x211F0, size: 0x8, addend: 0x0, symName: __ZNSt3__16__treeINS_12__value_typeINS_12basic_stringIcNS_11char_traitsIcEENS_9allocatorIcEEEE6ClientEENS_19__map_value_compareIS7_S9_NS_4lessIS7_EELb1EEENS5_IS9_EEE12__find_equalIS7_EERPNS_16__tree_node_baseIPvEERPNS_15__tree_end_nodeISK_EERKT_, symObjAddr: 0x50D0, symBinAddr: 0x100008574, symSize: 0x184 }
  - { offsetInCU: 0x11340, offset: 0x2125E, size: 0x8, addend: 0x0, symName: __ZNSt3__13mapINS_12basic_stringIcNS_11char_traitsIcEENS_9allocatorIcEEEE6ClientNS_4lessIS6_EENS4_INS_4pairIKS6_S7_EEEEE25__construct_node_with_keyERSB_, symObjAddr: 0x5254, symBinAddr: 0x1000086F8, symSize: 0x144 }
  - { offsetInCU: 0x11397, offset: 0x212B5, size: 0x8, addend: 0x0, symName: __ZNSt3__16__treeINS_12__value_typeINS_12basic_stringIcNS_11char_traitsIcEENS_9allocatorIcEEEE6ClientEENS_19__map_value_compareIS7_S9_NS_4lessIS7_EELb1EEENS5_IS9_EEE16__insert_node_atEPNS_15__tree_end_nodeIPNS_16__tree_node_baseIPvEEEERSK_SK_, symObjAddr: 0x5398, symBinAddr: 0x10000883C, symSize: 0xCC }
  - { offsetInCU: 0x113EB, offset: 0x21309, size: 0x8, addend: 0x0, symName: __ZNKSt3__110unique_ptrINS_11__tree_nodeINS_12__value_typeINS_12basic_stringIcNS_11char_traitsIcEENS_9allocatorIcEEEE6ClientEEPvEENS_21__map_node_destructorINS6_ISC_EEEEE3getB8ue170006Ev, symObjAddr: 0x5464, symBinAddr: 0x100008908, symSize: 0x28 }
  - { offsetInCU: 0x1140F, offset: 0x2132D, size: 0x8, addend: 0x0, symName: __ZNSt3__110unique_ptrINS_11__tree_nodeINS_12__value_typeINS_12basic_stringIcNS_11char_traitsIcEENS_9allocatorIcEEEE6ClientEEPvEENS_21__map_node_destructorINS6_ISC_EEEEE7releaseB8ue170006Ev, symObjAddr: 0x548C, symBinAddr: 0x100008930, symSize: 0x44 }
  - { offsetInCU: 0x11443, offset: 0x21361, size: 0x8, addend: 0x0, symName: __ZNSt3__110unique_ptrINS_11__tree_nodeINS_12__value_typeINS_12basic_stringIcNS_11char_traitsIcEENS_9allocatorIcEEEE6ClientEEPvEENS_21__map_node_destructorINS6_ISC_EEEEED1B8ue170006Ev, symObjAddr: 0x54D0, symBinAddr: 0x100008974, symSize: 0x2C }
  - { offsetInCU: 0x1146C, offset: 0x2138A, size: 0x8, addend: 0x0, symName: __ZNKSt3__16__treeINS_12__value_typeINS_12basic_stringIcNS_11char_traitsIcEENS_9allocatorIcEEEE6ClientEENS_19__map_value_compareIS7_S9_NS_4lessIS7_EELb1EEENS5_IS9_EEE10__root_ptrB8ue170006Ev, symObjAddr: 0x54FC, symBinAddr: 0x1000089A0, symSize: 0x24 }
  - { offsetInCU: 0x11490, offset: 0x213AE, size: 0x8, addend: 0x0, symName: __ZNSt3__16__treeINS_12__value_typeINS_12basic_stringIcNS_11char_traitsIcEENS_9allocatorIcEEEE6ClientEENS_19__map_value_compareIS7_S9_NS_4lessIS7_EELb1EEENS5_IS9_EEE10value_compB8ue170006Ev, symObjAddr: 0x5520, symBinAddr: 0x1000089C4, symSize: 0x28 }
  - { offsetInCU: 0x114B4, offset: 0x213D2, size: 0x8, addend: 0x0, symName: __ZNKSt3__119__map_value_compareINS_12basic_stringIcNS_11char_traitsIcEENS_9allocatorIcEEEENS_12__value_typeIS6_6ClientEENS_4lessIS6_EELb1EEclB8ue170006ERKS6_RKS9_, symObjAddr: 0x5548, symBinAddr: 0x1000089EC, symSize: 0x50 }
  - { offsetInCU: 0x114F6, offset: 0x21414, size: 0x8, addend: 0x0, symName: __ZNKSt3__119__map_value_compareINS_12basic_stringIcNS_11char_traitsIcEENS_9allocatorIcEEEENS_12__value_typeIS6_6ClientEENS_4lessIS6_EELb1EEclB8ue170006ERKS9_RKS6_, symObjAddr: 0x5598, symBinAddr: 0x100008A3C, symSize: 0x48 }
  - { offsetInCU: 0x11538, offset: 0x21456, size: 0x8, addend: 0x0, symName: __ZNSt3__117__compressed_pairImNS_19__map_value_compareINS_12basic_stringIcNS_11char_traitsIcEENS_9allocatorIcEEEENS_12__value_typeIS7_6ClientEENS_4lessIS7_EELb1EEEE6secondB8ue170006Ev, symObjAddr: 0x55E0, symBinAddr: 0x100008A84, symSize: 0x24 }
  - { offsetInCU: 0x1155C, offset: 0x2147A, size: 0x8, addend: 0x0, symName: __ZNSt3__122__compressed_pair_elemINS_19__map_value_compareINS_12basic_stringIcNS_11char_traitsIcEENS_9allocatorIcEEEENS_12__value_typeIS7_6ClientEENS_4lessIS7_EELb1EEELi1ELb1EE5__getB8ue170006Ev, symObjAddr: 0x5604, symBinAddr: 0x100008AA8, symSize: 0x14 }
  - { offsetInCU: 0x11581, offset: 0x2149F, size: 0x8, addend: 0x0, symName: __ZNKSt3__14lessINS_12basic_stringIcNS_11char_traitsIcEENS_9allocatorIcEEEEEclB8ue170006ERKS6_S9_, symObjAddr: 0x5618, symBinAddr: 0x100008ABC, symSize: 0x34 }
  - { offsetInCU: 0x115C3, offset: 0x214E1, size: 0x8, addend: 0x0, symName: __ZNKSt3__112__value_typeINS_12basic_stringIcNS_11char_traitsIcEENS_9allocatorIcEEEE6ClientE11__get_valueB8ue170006Ev, symObjAddr: 0x564C, symBinAddr: 0x100008AF0, symSize: 0x14 }
  - { offsetInCU: 0x115E8, offset: 0x21506, size: 0x8, addend: 0x0, symName: __ZNKSt3__112basic_stringIcNS_11char_traitsIcEENS_9allocatorIcEEE7compareB8ue170006ERKS5_, symObjAddr: 0x5698, symBinAddr: 0x100008B3C, symSize: 0x4C }
  - { offsetInCU: 0x1161E, offset: 0x2153C, size: 0x8, addend: 0x0, symName: __ZNKSt3__112basic_stringIcNS_11char_traitsIcEENS_9allocatorIcEEE7compareINS_17basic_string_viewIcS2_EELi0EEEiRKT_, symObjAddr: 0x56E4, symBinAddr: 0x100008B88, symSize: 0x140 }
  - { offsetInCU: 0x116A5, offset: 0x215C3, size: 0x8, addend: 0x0, symName: __ZNKSt3__112basic_stringIcNS_11char_traitsIcEENS_9allocatorIcEEEcvNS_17basic_string_viewIcS2_EEB8ue170006Ev, symObjAddr: 0x5824, symBinAddr: 0x100008CC8, symSize: 0x50 }
  - { offsetInCU: 0x116C9, offset: 0x215E7, size: 0x8, addend: 0x0, symName: __ZNKSt3__117basic_string_viewIcNS_11char_traitsIcEEE4sizeB8ue170006Ev, symObjAddr: 0x5874, symBinAddr: 0x100008D18, symSize: 0x18 }
  - { offsetInCU: 0x116EE, offset: 0x2160C, size: 0x8, addend: 0x0, symName: __ZNSt3__111char_traitsIcE7compareB8ue170006EPKcS3_m, symObjAddr: 0x588C, symBinAddr: 0x100008D30, symSize: 0x64 }
  - { offsetInCU: 0x1172D, offset: 0x2164B, size: 0x8, addend: 0x0, symName: __ZNKSt3__117basic_string_viewIcNS_11char_traitsIcEEE4dataB8ue170006Ev, symObjAddr: 0x58F0, symBinAddr: 0x100008D94, symSize: 0x18 }
  - { offsetInCU: 0x1175C, offset: 0x2167A, size: 0x8, addend: 0x0, symName: __ZNKSt3__16__lessIvvEclB8ue170006ImmEEbRKT_RKT0_, symObjAddr: 0x5988, symBinAddr: 0x100008E2C, symSize: 0x34 }
  - { offsetInCU: 0x117AF, offset: 0x216CD, size: 0x8, addend: 0x0, symName: __ZNSt3__117basic_string_viewIcNS_11char_traitsIcEEEC1B8ue170006EPKcm, symObjAddr: 0x59BC, symBinAddr: 0x100008E60, symSize: 0x3C }
  - { offsetInCU: 0x117F6, offset: 0x21714, size: 0x8, addend: 0x0, symName: __ZNSt3__117basic_string_viewIcNS_11char_traitsIcEEEC2B8ue170006EPKcm, symObjAddr: 0x59F8, symBinAddr: 0x100008E9C, symSize: 0x2C }
  - { offsetInCU: 0x1183D, offset: 0x2175B, size: 0x8, addend: 0x0, symName: __ZNSt3__116allocator_traitsINS_9allocatorINS_11__tree_nodeINS_12__value_typeINS_12basic_stringIcNS_11char_traitsIcEENS1_IcEEEE6ClientEEPvEEEEE8allocateB8ue170006ERSD_m, symObjAddr: 0x5A24, symBinAddr: 0x100008EC8, symSize: 0x2C }
  - { offsetInCU: 0x11870, offset: 0x2178E, size: 0x8, addend: 0x0, symName: __ZNSt3__121__map_node_destructorINS_9allocatorINS_11__tree_nodeINS_12__value_typeINS_12basic_stringIcNS_11char_traitsIcEENS1_IcEEEE6ClientEEPvEEEEEC1B8ue170006ERSD_, symObjAddr: 0x5A50, symBinAddr: 0x100008EF4, symSize: 0x34 }
  - { offsetInCU: 0x118AD, offset: 0x217CB, size: 0x8, addend: 0x0, symName: __ZNSt3__110unique_ptrINS_11__tree_nodeINS_12__value_typeINS_12basic_stringIcNS_11char_traitsIcEENS_9allocatorIcEEEE6ClientEEPvEENS_21__map_node_destructorINS6_ISC_EEEEEC1B8ue170006ILb1EvEEPSC_NS_16__dependent_typeINS_27__unique_ptr_deleter_sfinaeISF_EEXT_EE20__good_rval_ref_typeE, symObjAddr: 0x5A84, symBinAddr: 0x100008F28, symSize: 0x3C }
  - { offsetInCU: 0x118FD, offset: 0x2181B, size: 0x8, addend: 0x0, symName: __ZNSt3__116allocator_traitsINS_9allocatorINS_11__tree_nodeINS_12__value_typeINS_12basic_stringIcNS_11char_traitsIcEENS1_IcEEEE6ClientEEPvEEEEE9constructB8ue170006IKS8_JRSG_EvEEvRSD_PT_DpOT0_, symObjAddr: 0x5AC0, symBinAddr: 0x100008F64, symSize: 0x34 }
  - { offsetInCU: 0x11954, offset: 0x21872, size: 0x8, addend: 0x0, symName: __ZNKSt3__110unique_ptrINS_11__tree_nodeINS_12__value_typeINS_12basic_stringIcNS_11char_traitsIcEENS_9allocatorIcEEEE6ClientEEPvEENS_21__map_node_destructorINS6_ISC_EEEEEptB8ue170006Ev, symObjAddr: 0x5AF4, symBinAddr: 0x100008F98, symSize: 0x28 }
  - { offsetInCU: 0x11978, offset: 0x21896, size: 0x8, addend: 0x0, symName: __ZNSt3__110unique_ptrINS_11__tree_nodeINS_12__value_typeINS_12basic_stringIcNS_11char_traitsIcEENS_9allocatorIcEEEE6ClientEEPvEENS_21__map_node_destructorINS6_ISC_EEEEE11get_deleterB8ue170006Ev, symObjAddr: 0x5B1C, symBinAddr: 0x100008FC0, symSize: 0x24 }
  - { offsetInCU: 0x1199C, offset: 0x218BA, size: 0x8, addend: 0x0, symName: __ZNSt3__116allocator_traitsINS_9allocatorINS_11__tree_nodeINS_12__value_typeINS_12basic_stringIcNS_11char_traitsIcEENS1_IcEEEE6ClientEEPvEEEEE9constructB8ue170006IS9_JEvEEvRSD_PT_DpOT0_, symObjAddr: 0x5B40, symBinAddr: 0x100008FE4, symSize: 0x2C }
  - { offsetInCU: 0x119DE, offset: 0x218FC, size: 0x8, addend: 0x0, symName: __ZNSt3__19allocatorINS_11__tree_nodeINS_12__value_typeINS_12basic_stringIcNS_11char_traitsIcEENS0_IcEEEE6ClientEEPvEEE8allocateB8ue170006Em, symObjAddr: 0x5B6C, symBinAddr: 0x100009010, symSize: 0x8C }
  - { offsetInCU: 0x11A1A, offset: 0x21938, size: 0x8, addend: 0x0, symName: __ZNSt3__116allocator_traitsINS_9allocatorINS_11__tree_nodeINS_12__value_typeINS_12basic_stringIcNS_11char_traitsIcEENS1_IcEEEE6ClientEEPvEEEEE8max_sizeB8ue170006ISD_vEEmRKSD_, symObjAddr: 0x5BF8, symBinAddr: 0x10000909C, symSize: 0x24 }
  - { offsetInCU: 0x11A48, offset: 0x21966, size: 0x8, addend: 0x0, symName: __ZNKSt3__19allocatorINS_11__tree_nodeINS_12__value_typeINS_12basic_stringIcNS_11char_traitsIcEENS0_IcEEEE6ClientEEPvEEE8max_sizeB8ue170006Ev, symObjAddr: 0x5C78, symBinAddr: 0x10000911C, symSize: 0x20 }
  - { offsetInCU: 0x11A6D, offset: 0x2198B, size: 0x8, addend: 0x0, symName: __ZNSt3__121__map_node_destructorINS_9allocatorINS_11__tree_nodeINS_12__value_typeINS_12basic_stringIcNS_11char_traitsIcEENS1_IcEEEE6ClientEEPvEEEEEC2B8ue170006ERSD_, symObjAddr: 0x5CBC, symBinAddr: 0x100009160, symSize: 0x28 }
  - { offsetInCU: 0x11AA5, offset: 0x219C3, size: 0x8, addend: 0x0, symName: __ZNSt3__110unique_ptrINS_11__tree_nodeINS_12__value_typeINS_12basic_stringIcNS_11char_traitsIcEENS_9allocatorIcEEEE6ClientEEPvEENS_21__map_node_destructorINS6_ISC_EEEEEC2B8ue170006ILb1EvEEPSC_NS_16__dependent_typeINS_27__unique_ptr_deleter_sfinaeISF_EEXT_EE20__good_rval_ref_typeE, symObjAddr: 0x5CE4, symBinAddr: 0x100009188, symSize: 0x5C }
  - { offsetInCU: 0x11AF5, offset: 0x21A13, size: 0x8, addend: 0x0, symName: __ZNSt3__117__compressed_pairIPNS_11__tree_nodeINS_12__value_typeINS_12basic_stringIcNS_11char_traitsIcEENS_9allocatorIcEEEE6ClientEEPvEENS_21__map_node_destructorINS6_ISC_EEEEEC1B8ue170006IRSD_SG_EEOT_OT0_, symObjAddr: 0x5D40, symBinAddr: 0x1000091E4, symSize: 0x3C }
  - { offsetInCU: 0x11B4C, offset: 0x21A6A, size: 0x8, addend: 0x0, symName: __ZNSt3__117__compressed_pairIPNS_11__tree_nodeINS_12__value_typeINS_12basic_stringIcNS_11char_traitsIcEENS_9allocatorIcEEEE6ClientEEPvEENS_21__map_node_destructorINS6_ISC_EEEEEC2B8ue170006IRSD_SG_EEOT_OT0_, symObjAddr: 0x5D7C, symBinAddr: 0x100009220, symSize: 0x48 }
  - { offsetInCU: 0x11BA3, offset: 0x21AC1, size: 0x8, addend: 0x0, symName: __ZNSt3__122__compressed_pair_elemIPNS_11__tree_nodeINS_12__value_typeINS_12basic_stringIcNS_11char_traitsIcEENS_9allocatorIcEEEE6ClientEEPvEELi0ELb0EEC2B8ue170006IRSD_vEEOT_, symObjAddr: 0x5DC4, symBinAddr: 0x100009268, symSize: 0x24 }
  - { offsetInCU: 0x11BE4, offset: 0x21B02, size: 0x8, addend: 0x0, symName: __ZNSt3__122__compressed_pair_elemINS_21__map_node_destructorINS_9allocatorINS_11__tree_nodeINS_12__value_typeINS_12basic_stringIcNS_11char_traitsIcEENS2_IcEEEE6ClientEEPvEEEEEELi1ELb0EEC2B8ue170006ISF_vEEOT_, symObjAddr: 0x5DE8, symBinAddr: 0x10000928C, symSize: 0x24 }
  - { offsetInCU: 0x11C25, offset: 0x21B43, size: 0x8, addend: 0x0, symName: __ZNSt3__19allocatorINS_11__tree_nodeINS_12__value_typeINS_12basic_stringIcNS_11char_traitsIcEENS0_IcEEEE6ClientEEPvEEE9constructB8ue170006IKS7_JRSE_EEEvPT_DpOT0_, symObjAddr: 0x5E0C, symBinAddr: 0x1000092B0, symSize: 0x30 }
  - { offsetInCU: 0x11C79, offset: 0x21B97, size: 0x8, addend: 0x0, symName: __ZNKSt3__117__compressed_pairIPNS_11__tree_nodeINS_12__value_typeINS_12basic_stringIcNS_11char_traitsIcEENS_9allocatorIcEEEE6ClientEEPvEENS_21__map_node_destructorINS6_ISC_EEEEE5firstB8ue170006Ev, symObjAddr: 0x5E3C, symBinAddr: 0x1000092E0, symSize: 0x24 }
  - { offsetInCU: 0x11C9D, offset: 0x21BBB, size: 0x8, addend: 0x0, symName: __ZNKSt3__122__compressed_pair_elemIPNS_11__tree_nodeINS_12__value_typeINS_12basic_stringIcNS_11char_traitsIcEENS_9allocatorIcEEEE6ClientEEPvEELi0ELb0EE5__getB8ue170006Ev, symObjAddr: 0x5E60, symBinAddr: 0x100009304, symSize: 0x14 }
  - { offsetInCU: 0x11CC2, offset: 0x21BE0, size: 0x8, addend: 0x0, symName: __ZNSt3__117__compressed_pairIPNS_11__tree_nodeINS_12__value_typeINS_12basic_stringIcNS_11char_traitsIcEENS_9allocatorIcEEEE6ClientEEPvEENS_21__map_node_destructorINS6_ISC_EEEEE6secondB8ue170006Ev, symObjAddr: 0x5E74, symBinAddr: 0x100009318, symSize: 0x28 }
  - { offsetInCU: 0x11CE6, offset: 0x21C04, size: 0x8, addend: 0x0, symName: __ZNSt3__122__compressed_pair_elemINS_21__map_node_destructorINS_9allocatorINS_11__tree_nodeINS_12__value_typeINS_12basic_stringIcNS_11char_traitsIcEENS2_IcEEEE6ClientEEPvEEEEEELi1ELb0EE5__getB8ue170006Ev, symObjAddr: 0x5E9C, symBinAddr: 0x100009340, symSize: 0x14 }
  - { offsetInCU: 0x11D0B, offset: 0x21C29, size: 0x8, addend: 0x0, symName: __ZNSt3__19allocatorINS_11__tree_nodeINS_12__value_typeINS_12basic_stringIcNS_11char_traitsIcEENS0_IcEEEE6ClientEEPvEEE9constructB8ue170006IS8_JEEEvPT_DpOT0_, symObjAddr: 0x5EB0, symBinAddr: 0x100009354, symSize: 0x28 }
  - { offsetInCU: 0x11D4B, offset: 0x21C69, size: 0x8, addend: 0x0, symName: __ZNSt3__116__tree_node_baseIPvE12__set_parentB8ue170006EPS2_, symObjAddr: 0x630C, symBinAddr: 0x1000097B0, symSize: 0x20 }
  - { offsetInCU: 0x11D7F, offset: 0x21C9D, size: 0x8, addend: 0x0, symName: __ZNSt3__117__compressed_pairIPNS_11__tree_nodeINS_12__value_typeINS_12basic_stringIcNS_11char_traitsIcEENS_9allocatorIcEEEE6ClientEEPvEENS_21__map_node_destructorINS6_ISC_EEEEE5firstB8ue170006Ev, symObjAddr: 0x632C, symBinAddr: 0x1000097D0, symSize: 0x24 }
  - { offsetInCU: 0x11DA3, offset: 0x21CC1, size: 0x8, addend: 0x0, symName: __ZNSt3__122__compressed_pair_elemIPNS_11__tree_nodeINS_12__value_typeINS_12basic_stringIcNS_11char_traitsIcEENS_9allocatorIcEEEE6ClientEEPvEELi0ELb0EE5__getB8ue170006Ev, symObjAddr: 0x6350, symBinAddr: 0x1000097F4, symSize: 0x14 }
  - { offsetInCU: 0x11DC8, offset: 0x21CE6, size: 0x8, addend: 0x0, symName: __ZNSt3__110unique_ptrINS_11__tree_nodeINS_12__value_typeINS_12basic_stringIcNS_11char_traitsIcEENS_9allocatorIcEEEE6ClientEEPvEENS_21__map_node_destructorINS6_ISC_EEEEED2B8ue170006Ev, symObjAddr: 0x6364, symBinAddr: 0x100009808, symSize: 0x30 }
  - { offsetInCU: 0x11DF1, offset: 0x21D0F, size: 0x8, addend: 0x0, symName: __ZNSt3__110unique_ptrINS_11__tree_nodeINS_12__value_typeINS_12basic_stringIcNS_11char_traitsIcEENS_9allocatorIcEEEE6ClientEEPvEENS_21__map_node_destructorINS6_ISC_EEEEE5resetB8ue170006EPSC_, symObjAddr: 0x6394, symBinAddr: 0x100009838, symSize: 0x78 }
  - { offsetInCU: 0x11E34, offset: 0x21D52, size: 0x8, addend: 0x0, symName: __ZNSt3__121__map_node_destructorINS_9allocatorINS_11__tree_nodeINS_12__value_typeINS_12basic_stringIcNS_11char_traitsIcEENS1_IcEEEE6ClientEEPvEEEEEclB8ue170006EPSC_, symObjAddr: 0x640C, symBinAddr: 0x1000098B0, symSize: 0xE4 }
  - { offsetInCU: 0x11E67, offset: 0x21D85, size: 0x8, addend: 0x0, symName: __ZNSt3__116allocator_traitsINS_9allocatorINS_11__tree_nodeINS_12__value_typeINS_12basic_stringIcNS_11char_traitsIcEENS1_IcEEEE6ClientEEPvEEEEE7destroyB8ue170006IS9_vvEEvRSD_PT_, symObjAddr: 0x64F0, symBinAddr: 0x100009994, symSize: 0x28 }
  - { offsetInCU: 0x11EA2, offset: 0x21DC0, size: 0x8, addend: 0x0, symName: __ZNSt3__116allocator_traitsINS_9allocatorINS_11__tree_nodeINS_12__value_typeINS_12basic_stringIcNS_11char_traitsIcEENS1_IcEEEE6ClientEEPvEEEEE7destroyB8ue170006IKS8_vvEEvRSD_PT_, symObjAddr: 0x6518, symBinAddr: 0x1000099BC, symSize: 0x28 }
  - { offsetInCU: 0x11EDD, offset: 0x21DFB, size: 0x8, addend: 0x0, symName: __ZNSt3__112basic_stringIcNS_11char_traitsIcEENS_9allocatorIcEEEC2B8ue170006Ev, symObjAddr: 0x6540, symBinAddr: 0x1000099E4, symSize: 0x3C }
  - { offsetInCU: 0x11F06, offset: 0x21E24, size: 0x8, addend: 0x0, symName: __ZNSt3__112basic_stringIcNS_11char_traitsIcEENS_9allocatorIcEEE14__default_initB8ue170006Ev, symObjAddr: 0x657C, symBinAddr: 0x100009A20, symSize: 0xB0 }
  - { offsetInCU: 0x11F58, offset: 0x21E76, size: 0x8, addend: 0x0, symName: __ZNSt3__117__compressed_pairINS_12basic_stringIcNS_11char_traitsIcEENS_9allocatorIcEEE5__repES5_E5firstB8ue170006Ev, symObjAddr: 0x662C, symBinAddr: 0x100009AD0, symSize: 0x24 }
  - { offsetInCU: 0x11F7C, offset: 0x21E9A, size: 0x8, addend: 0x0, symName: __ZNSt3__112basic_stringIcNS_11char_traitsIcEENS_9allocatorIcEEE11__recommendB8ue170006Em, symObjAddr: 0x6650, symBinAddr: 0x100009AF4, symSize: 0x9C }
  - { offsetInCU: 0x11FB0, offset: 0x21ECE, size: 0x8, addend: 0x0, symName: __ZNSt3__116allocator_traitsINS_9allocatorIcEEE8allocateB8ue170006ERS2_m, symObjAddr: 0x66EC, symBinAddr: 0x100009B90, symSize: 0x2C }
  - { offsetInCU: 0x11FE3, offset: 0x21F01, size: 0x8, addend: 0x0, symName: __ZNSt3__112basic_stringIcNS_11char_traitsIcEENS_9allocatorIcEEE7__allocB8ue170006Ev, symObjAddr: 0x6718, symBinAddr: 0x100009BBC, symSize: 0x24 }
  - { offsetInCU: 0x12007, offset: 0x21F25, size: 0x8, addend: 0x0, symName: __ZNSt3__112basic_stringIcNS_11char_traitsIcEENS_9allocatorIcEEE16__begin_lifetimeB8ue170006EPcm, symObjAddr: 0x673C, symBinAddr: 0x100009BE0, symSize: 0x14 }
  - { offsetInCU: 0x1203A, offset: 0x21F58, size: 0x8, addend: 0x0, symName: __ZNSt3__112basic_stringIcNS_11char_traitsIcEENS_9allocatorIcEEE18__set_long_pointerB8ue170006EPc, symObjAddr: 0x6750, symBinAddr: 0x100009BF4, symSize: 0x38 }
  - { offsetInCU: 0x1206D, offset: 0x21F8B, size: 0x8, addend: 0x0, symName: __ZNSt3__112basic_stringIcNS_11char_traitsIcEENS_9allocatorIcEEE14__set_long_capB8ue170006Em, symObjAddr: 0x6788, symBinAddr: 0x100009C2C, symSize: 0x70 }
  - { offsetInCU: 0x120A0, offset: 0x21FBE, size: 0x8, addend: 0x0, symName: __ZNSt3__112basic_stringIcNS_11char_traitsIcEENS_9allocatorIcEEE15__set_long_sizeB8ue170006Em, symObjAddr: 0x67F8, symBinAddr: 0x100009C9C, symSize: 0x38 }
  - { offsetInCU: 0x120D3, offset: 0x21FF1, size: 0x8, addend: 0x0, symName: __ZNSt3__122__compressed_pair_elemINS_12basic_stringIcNS_11char_traitsIcEENS_9allocatorIcEEE5__repELi0ELb0EE5__getB8ue170006Ev, symObjAddr: 0x6830, symBinAddr: 0x100009CD4, symSize: 0x14 }
  - { offsetInCU: 0x120F8, offset: 0x22016, size: 0x8, addend: 0x0, symName: __ZNSt3__112basic_stringIcNS_11char_traitsIcEENS_9allocatorIcEEE10__align_itB8ue170006ILm16EEEmm, symObjAddr: 0x6844, symBinAddr: 0x100009CE8, symSize: 0x1C }
  - { offsetInCU: 0x12126, offset: 0x22044, size: 0x8, addend: 0x0, symName: __ZNSt3__19allocatorIcE8allocateB8ue170006Em, symObjAddr: 0x6860, symBinAddr: 0x100009D04, symSize: 0x84 }
  - { offsetInCU: 0x12162, offset: 0x22080, size: 0x8, addend: 0x0, symName: __ZNSt3__116allocator_traitsINS_9allocatorIcEEE8max_sizeB8ue170006IS2_vEEmRKS2_, symObjAddr: 0x68E4, symBinAddr: 0x100009D88, symSize: 0x24 }
  - { offsetInCU: 0x12190, offset: 0x220AE, size: 0x8, addend: 0x0, symName: __ZNKSt3__19allocatorIcE8max_sizeB8ue170006Ev, symObjAddr: 0x6908, symBinAddr: 0x100009DAC, symSize: 0x14 }
  - { offsetInCU: 0x121B5, offset: 0x220D3, size: 0x8, addend: 0x0, symName: __ZNSt3__117__compressed_pairINS_12basic_stringIcNS_11char_traitsIcEENS_9allocatorIcEEE5__repES5_E6secondB8ue170006Ev, symObjAddr: 0x691C, symBinAddr: 0x100009DC0, symSize: 0x24 }
  - { offsetInCU: 0x121D9, offset: 0x220F7, size: 0x8, addend: 0x0, symName: __ZNSt3__122__compressed_pair_elemINS_9allocatorIcEELi1ELb1EE5__getB8ue170006Ev, symObjAddr: 0x6940, symBinAddr: 0x100009DE4, symSize: 0x14 }
  - { offsetInCU: 0x121FE, offset: 0x2211C, size: 0x8, addend: 0x0, symName: __ZNSt3__116allocator_traitsINS_9allocatorIcEEE37select_on_container_copy_constructionB8ue170006IS2_vvEES2_RKS2_, symObjAddr: 0x6954, symBinAddr: 0x100009DF8, symSize: 0x10 }
  - { offsetInCU: 0x1222D, offset: 0x2214B, size: 0x8, addend: 0x0, symName: __ZNKSt3__112basic_stringIcNS_11char_traitsIcEENS_9allocatorIcEEE13get_allocatorB8ue170006Ev, symObjAddr: 0x6964, symBinAddr: 0x100009E08, symSize: 0x24 }
  - { offsetInCU: 0x12251, offset: 0x2216F, size: 0x8, addend: 0x0, symName: __ZNSt3__112basic_stringIcNS_11char_traitsIcEENS_9allocatorIcEEEC1B8ue170006ENS_24__uninitialized_size_tagEmRKS4_, symObjAddr: 0x6988, symBinAddr: 0x100009E2C, symSize: 0x3C }
  - { offsetInCU: 0x122A4, offset: 0x221C2, size: 0x8, addend: 0x0, symName: __ZNSt3__112basic_stringIcNS_11char_traitsIcEENS_9allocatorIcEEE13__get_pointerB8ue170006Ev, symObjAddr: 0x69D8, symBinAddr: 0x100009E7C, symSize: 0x54 }
  - { offsetInCU: 0x122C8, offset: 0x221E6, size: 0x8, addend: 0x0, symName: __ZNSt3__111char_traitsIcE4copyB8ue170006EPcPKcm, symObjAddr: 0x6A2C, symBinAddr: 0x100009ED0, symSize: 0x64 }
  - { offsetInCU: 0x12307, offset: 0x22225, size: 0x8, addend: 0x0, symName: __ZNSt3__111char_traitsIcE6assignB8ue170006EPcmc, symObjAddr: 0x6A90, symBinAddr: 0x100009F34, symSize: 0x58 }
  - { offsetInCU: 0x12346, offset: 0x22264, size: 0x8, addend: 0x0, symName: __ZNKSt3__112basic_stringIcNS_11char_traitsIcEENS_9allocatorIcEEE7__allocB8ue170006Ev, symObjAddr: 0x6AE8, symBinAddr: 0x100009F8C, symSize: 0x24 }
  - { offsetInCU: 0x1236A, offset: 0x22288, size: 0x8, addend: 0x0, symName: __ZNKSt3__117__compressed_pairINS_12basic_stringIcNS_11char_traitsIcEENS_9allocatorIcEEE5__repES5_E6secondB8ue170006Ev, symObjAddr: 0x6B0C, symBinAddr: 0x100009FB0, symSize: 0x24 }
  - { offsetInCU: 0x1238E, offset: 0x222AC, size: 0x8, addend: 0x0, symName: __ZNKSt3__122__compressed_pair_elemINS_9allocatorIcEELi1ELb1EE5__getB8ue170006Ev, symObjAddr: 0x6B30, symBinAddr: 0x100009FD4, symSize: 0x14 }
  - { offsetInCU: 0x123B3, offset: 0x222D1, size: 0x8, addend: 0x0, symName: __ZNSt3__112basic_stringIcNS_11char_traitsIcEENS_9allocatorIcEEEC2B8ue170006ENS_24__uninitialized_size_tagEmRKS4_, symObjAddr: 0x6B44, symBinAddr: 0x100009FE8, symSize: 0x110 }
  - { offsetInCU: 0x12434, offset: 0x22352, size: 0x8, addend: 0x0, symName: __ZNSt3__117__compressed_pairINS_12basic_stringIcNS_11char_traitsIcEENS_9allocatorIcEEE5__repES5_EC1B8ue170006INS_18__default_init_tagERKS5_EEOT_OT0_, symObjAddr: 0x6C54, symBinAddr: 0x10000A0F8, symSize: 0x3C }
  - { offsetInCU: 0x1248B, offset: 0x223A9, size: 0x8, addend: 0x0, symName: __ZNKSt3__112basic_stringIcNS_11char_traitsIcEENS_9allocatorIcEEE8max_sizeB8ue170006Ev, symObjAddr: 0x6C90, symBinAddr: 0x10000A134, symSize: 0xAC }
  - { offsetInCU: 0x124DD, offset: 0x223FB, size: 0x8, addend: 0x0, symName: __ZNKSt3__112basic_stringIcNS_11char_traitsIcEENS_9allocatorIcEEE20__throw_length_errorB8ue170006Ev, symObjAddr: 0x6D3C, symBinAddr: 0x10000A1E0, symSize: 0x1C }
  - { offsetInCU: 0x12501, offset: 0x2241F, size: 0x8, addend: 0x0, symName: __ZNSt3__112basic_stringIcNS_11char_traitsIcEENS_9allocatorIcEEE13__fits_in_ssoB8ue170006Em, symObjAddr: 0x6D58, symBinAddr: 0x10000A1FC, symSize: 0x4C }
  - { offsetInCU: 0x12525, offset: 0x22443, size: 0x8, addend: 0x0, symName: __ZNSt3__112basic_stringIcNS_11char_traitsIcEENS_9allocatorIcEEE16__set_short_sizeB8ue170006Em, symObjAddr: 0x6DA4, symBinAddr: 0x10000A248, symSize: 0x78 }
  - { offsetInCU: 0x12558, offset: 0x22476, size: 0x8, addend: 0x0, symName: __ZNSt3__117__compressed_pairINS_12basic_stringIcNS_11char_traitsIcEENS_9allocatorIcEEE5__repES5_EC2B8ue170006INS_18__default_init_tagERKS5_EEOT_OT0_, symObjAddr: 0x6E1C, symBinAddr: 0x10000A2C0, symSize: 0x40 }
  - { offsetInCU: 0x125AF, offset: 0x224CD, size: 0x8, addend: 0x0, symName: __ZNSt3__122__compressed_pair_elemINS_9allocatorIcEELi1ELb1EEC2B8ue170006IRKS2_vEEOT_, symObjAddr: 0x6E5C, symBinAddr: 0x10000A300, symSize: 0x18 }
  - { offsetInCU: 0x125F0, offset: 0x2250E, size: 0x8, addend: 0x0, symName: __ZNSt3__114numeric_limitsImE3maxB8ue170006Ev, symObjAddr: 0x6E74, symBinAddr: 0x10000A318, symSize: 0x14 }
  - { offsetInCU: 0x12604, offset: 0x22522, size: 0x8, addend: 0x0, symName: __ZNSt3__123__libcpp_numeric_limitsImLb1EE3maxB8ue170006Ev, symObjAddr: 0x6E88, symBinAddr: 0x10000A32C, symSize: 0x8 }
  - { offsetInCU: 0x12618, offset: 0x22536, size: 0x8, addend: 0x0, symName: __ZNSt12length_errorC1B8ue170006EPKc, symObjAddr: 0x6EF4, symBinAddr: 0x10000A398, symSize: 0x34 }
  - { offsetInCU: 0x1264F, offset: 0x2256D, size: 0x8, addend: 0x0, symName: __ZNSt12length_errorC2B8ue170006EPKc, symObjAddr: 0x6F28, symBinAddr: 0x10000A3CC, symSize: 0x4C }
  - { offsetInCU: 0x12686, offset: 0x225A4, size: 0x8, addend: 0x0, symName: __ZNSt3__112basic_stringIcNS_11char_traitsIcEENS_9allocatorIcEEE18__get_long_pointerB8ue170006Ev, symObjAddr: 0x6F74, symBinAddr: 0x10000A418, symSize: 0x28 }
  - { offsetInCU: 0x126AA, offset: 0x225C8, size: 0x8, addend: 0x0, symName: __ZNSt3__112basic_stringIcNS_11char_traitsIcEENS_9allocatorIcEEE19__get_short_pointerB8ue170006Ev, symObjAddr: 0x6F9C, symBinAddr: 0x10000A440, symSize: 0x28 }
  - { offsetInCU: 0x126CE, offset: 0x225EC, size: 0x8, addend: 0x0, symName: __ZNSt3__114pointer_traitsIPcE10pointer_toB8ue170006ERc, symObjAddr: 0x6FC4, symBinAddr: 0x10000A468, symSize: 0x14 }
  - { offsetInCU: 0x12728, offset: 0x22646, size: 0x8, addend: 0x0, symName: __ZNKSt3__114__copy_trivialclB8ue170006IKccLi0EEENS_4pairIPT_PT0_EES5_S5_S7_, symObjAddr: 0x71F8, symBinAddr: 0x10000A69C, symSize: 0x48 }
  - { offsetInCU: 0x127A8, offset: 0x226C6, size: 0x8, addend: 0x0, symName: __ZNSt3__14pairIPKcS2_EC1B8ue170006ERKS2_S5_, symObjAddr: 0x7374, symBinAddr: 0x10000A818, symSize: 0x3C }
  - { offsetInCU: 0x127ED, offset: 0x2270B, size: 0x8, addend: 0x0, symName: __ZNSt3__14pairIPKcS2_EC2B8ue170006ERKS2_S5_, symObjAddr: 0x73B0, symBinAddr: 0x10000A854, symSize: 0x34 }
  - { offsetInCU: 0x12832, offset: 0x22750, size: 0x8, addend: 0x0, symName: __ZNSt3__118__unwrap_iter_implIPKcLb1EE8__unwrapB8ue170006ES2_, symObjAddr: 0x73E4, symBinAddr: 0x10000A888, symSize: 0x24 }
  - { offsetInCU: 0x12855, offset: 0x22773, size: 0x8, addend: 0x0, symName: __ZNSt3__14pairIPKcPcEC1B8ue170006ERKS2_RKS3_, symObjAddr: 0x7558, symBinAddr: 0x10000A9FC, symSize: 0x3C }
  - { offsetInCU: 0x1289A, offset: 0x227B8, size: 0x8, addend: 0x0, symName: __ZNSt3__14pairIPKcPcEC2B8ue170006ERKS2_RKS3_, symObjAddr: 0x7594, symBinAddr: 0x10000AA38, symSize: 0x34 }
  - { offsetInCU: 0x128DF, offset: 0x227FD, size: 0x8, addend: 0x0, symName: __ZNSt3__118__unwrap_iter_implIPcLb1EE8__unwrapB8ue170006ES1_, symObjAddr: 0x75C8, symBinAddr: 0x10000AA6C, symSize: 0x24 }
  - { offsetInCU: 0x12902, offset: 0x22820, size: 0x8, addend: 0x0, symName: __ZNSt3__118__unwrap_iter_implIPKcLb1EE8__rewrapB8ue170006ES2_S2_, symObjAddr: 0x763C, symBinAddr: 0x10000AAE0, symSize: 0x48 }
  - { offsetInCU: 0x12933, offset: 0x22851, size: 0x8, addend: 0x0, symName: __ZNSt3__118__unwrap_iter_implIPcLb1EE8__rewrapB8ue170006ES1_S1_, symObjAddr: 0x7684, symBinAddr: 0x10000AB28, symSize: 0x48 }
  - { offsetInCU: 0x12964, offset: 0x22882, size: 0x8, addend: 0x0, symName: __ZNSt3__16__treeINS_12__value_typeINS_12basic_stringIcNS_11char_traitsIcEENS_9allocatorIcEEEE6ClientEENS_19__map_value_compareIS7_S9_NS_4lessIS7_EELb1EEENS5_IS9_EEE4findIS7_EENS_15__tree_iteratorIS9_PNS_11__tree_nodeIS9_PvEElEERKT_, symObjAddr: 0x798C, symBinAddr: 0x10000AC2C, symSize: 0xF8 }
  - { offsetInCU: 0x129B3, offset: 0x228D1, size: 0x8, addend: 0x0, symName: __ZNSt3__16__treeINS_12__value_typeINS_12basic_stringIcNS_11char_traitsIcEENS_9allocatorIcEEEE6ClientEENS_19__map_value_compareIS7_S9_NS_4lessIS7_EELb1EEENS5_IS9_EEE13__lower_boundIS7_EENS_15__tree_iteratorIS9_PNS_11__tree_nodeIS9_PvEElEERKT_SL_PNS_15__tree_end_nodeIPNS_16__tree_node_baseISJ_EEEE, symObjAddr: 0x7A84, symBinAddr: 0x10000AD24, symSize: 0xA4 }
  - { offsetInCU: 0x12A10, offset: 0x2292E, size: 0x8, addend: 0x0, symName: __ZNKSt3__115__tree_iteratorINS_12__value_typeINS_12basic_stringIcNS_11char_traitsIcEENS_9allocatorIcEEEE6ClientEEPNS_11__tree_nodeIS9_PvEElEdeB8ue170006Ev, symObjAddr: 0x7B28, symBinAddr: 0x10000ADC8, symSize: 0x28 }
  - { offsetInCU: 0x12A34, offset: 0x22952, size: 0x8, addend: 0x0, symName: __ZNSt3__13mapINS_12basic_stringIcNS_11char_traitsIcEENS_9allocatorIcEEEE6ClientNS_4lessIS6_EENS4_INS_4pairIKS6_S7_EEEEEC2B8ue170006Ev, symObjAddr: 0x7B50, symBinAddr: 0x10000ADF0, symSize: 0x40 }
  - { offsetInCU: 0x12A5D, offset: 0x2297B, size: 0x8, addend: 0x0, symName: __ZNSt3__119__map_value_compareINS_12basic_stringIcNS_11char_traitsIcEENS_9allocatorIcEEEENS_12__value_typeIS6_6ClientEENS_4lessIS6_EELb1EEC1B8ue170006ESB_, symObjAddr: 0x7B90, symBinAddr: 0x10000AE30, symSize: 0x2C }
  - { offsetInCU: 0x12A95, offset: 0x229B3, size: 0x8, addend: 0x0, symName: __ZNSt3__16__treeINS_12__value_typeINS_12basic_stringIcNS_11char_traitsIcEENS_9allocatorIcEEEE6ClientEENS_19__map_value_compareIS7_S9_NS_4lessIS7_EELb1EEENS5_IS9_EEEC1ERKSD_, symObjAddr: 0x7BBC, symBinAddr: 0x10000AE5C, symSize: 0x34 }
  - { offsetInCU: 0x12ACF, offset: 0x229ED, size: 0x8, addend: 0x0, symName: __ZNSt3__119__map_value_compareINS_12basic_stringIcNS_11char_traitsIcEENS_9allocatorIcEEEENS_12__value_typeIS6_6ClientEENS_4lessIS6_EELb1EEC2B8ue170006ESB_, symObjAddr: 0x7BF0, symBinAddr: 0x10000AE90, symSize: 0x14 }
  - { offsetInCU: 0x12B07, offset: 0x22A25, size: 0x8, addend: 0x0, symName: __ZNSt3__16__treeINS_12__value_typeINS_12basic_stringIcNS_11char_traitsIcEENS_9allocatorIcEEEE6ClientEENS_19__map_value_compareIS7_S9_NS_4lessIS7_EELb1EEENS5_IS9_EEEC2ERKSD_, symObjAddr: 0x7C04, symBinAddr: 0x10000AEA4, symSize: 0x70 }
  - { offsetInCU: 0x12B41, offset: 0x22A5F, size: 0x8, addend: 0x0, symName: __ZNSt3__117__compressed_pairINS_15__tree_end_nodeIPNS_16__tree_node_baseIPvEEEENS_9allocatorINS_11__tree_nodeINS_12__value_typeINS_12basic_stringIcNS_11char_traitsIcEENS7_IcEEEE6ClientEES3_EEEEEC1B8ue170006ILb1EvEEv, symObjAddr: 0x7C74, symBinAddr: 0x10000AF14, symSize: 0x2C }
  - { offsetInCU: 0x12B7A, offset: 0x22A98, size: 0x8, addend: 0x0, symName: __ZNSt3__117__compressed_pairImNS_19__map_value_compareINS_12basic_stringIcNS_11char_traitsIcEENS_9allocatorIcEEEENS_12__value_typeIS7_6ClientEENS_4lessIS7_EELb1EEEEC1B8ue170006IiRKSD_EEOT_OT0_, symObjAddr: 0x7CA0, symBinAddr: 0x10000AF40, symSize: 0x3C }
  - { offsetInCU: 0x12BD1, offset: 0x22AEF, size: 0x8, addend: 0x0, symName: __ZNSt3__117__compressed_pairINS_15__tree_end_nodeIPNS_16__tree_node_baseIPvEEEENS_9allocatorINS_11__tree_nodeINS_12__value_typeINS_12basic_stringIcNS_11char_traitsIcEENS7_IcEEEE6ClientEES3_EEEEEC2B8ue170006ILb1EvEEv, symObjAddr: 0x7CDC, symBinAddr: 0x10000AF7C, symSize: 0x34 }
  - { offsetInCU: 0x12C05, offset: 0x22B23, size: 0x8, addend: 0x0, symName: __ZNSt3__122__compressed_pair_elemINS_15__tree_end_nodeIPNS_16__tree_node_baseIPvEEEELi0ELb0EEC2B8ue170006ENS_16__value_init_tagE, symObjAddr: 0x7D10, symBinAddr: 0x10000AFB0, symSize: 0x2C }
  - { offsetInCU: 0x12C39, offset: 0x22B57, size: 0x8, addend: 0x0, symName: __ZNSt3__122__compressed_pair_elemINS_9allocatorINS_11__tree_nodeINS_12__value_typeINS_12basic_stringIcNS_11char_traitsIcEENS1_IcEEEE6ClientEEPvEEEELi1ELb1EEC2B8ue170006ENS_16__value_init_tagE, symObjAddr: 0x7D3C, symBinAddr: 0x10000AFDC, symSize: 0x2C }
  - { offsetInCU: 0x12C6D, offset: 0x22B8B, size: 0x8, addend: 0x0, symName: __ZNSt3__115__tree_end_nodeIPNS_16__tree_node_baseIPvEEEC1B8ue170006Ev, symObjAddr: 0x7D68, symBinAddr: 0x10000B008, symSize: 0x2C }
  - { offsetInCU: 0x12C96, offset: 0x22BB4, size: 0x8, addend: 0x0, symName: __ZNSt3__115__tree_end_nodeIPNS_16__tree_node_baseIPvEEEC2B8ue170006Ev, symObjAddr: 0x7D94, symBinAddr: 0x10000B034, symSize: 0x18 }
  - { offsetInCU: 0x12CBF, offset: 0x22BDD, size: 0x8, addend: 0x0, symName: __ZNSt3__19allocatorINS_11__tree_nodeINS_12__value_typeINS_12basic_stringIcNS_11char_traitsIcEENS0_IcEEEE6ClientEEPvEEEC2B8ue170006Ev, symObjAddr: 0x7DAC, symBinAddr: 0x10000B04C, symSize: 0x2C }
  - { offsetInCU: 0x12CE8, offset: 0x22C06, size: 0x8, addend: 0x0, symName: __ZNSt3__116__non_trivial_ifILb1ENS_9allocatorINS_11__tree_nodeINS_12__value_typeINS_12basic_stringIcNS_11char_traitsIcEENS1_IcEEEE6ClientEEPvEEEEEC2B8ue170006Ev, symObjAddr: 0x7DD8, symBinAddr: 0x10000B078, symSize: 0x14 }
  - { offsetInCU: 0x12D11, offset: 0x22C2F, size: 0x8, addend: 0x0, symName: __ZNSt3__117__compressed_pairImNS_19__map_value_compareINS_12basic_stringIcNS_11char_traitsIcEENS_9allocatorIcEEEENS_12__value_typeIS7_6ClientEENS_4lessIS7_EELb1EEEEC2B8ue170006IiRKSD_EEOT_OT0_, symObjAddr: 0x7DEC, symBinAddr: 0x10000B08C, symSize: 0x44 }
  - { offsetInCU: 0x12D68, offset: 0x22C86, size: 0x8, addend: 0x0, symName: __ZNSt3__122__compressed_pair_elemImLi0ELb0EEC2B8ue170006IivEEOT_, symObjAddr: 0x7E30, symBinAddr: 0x10000B0D0, symSize: 0x24 }
  - { offsetInCU: 0x12DA9, offset: 0x22CC7, size: 0x8, addend: 0x0, symName: __ZNSt3__122__compressed_pair_elemINS_19__map_value_compareINS_12basic_stringIcNS_11char_traitsIcEENS_9allocatorIcEEEENS_12__value_typeIS7_6ClientEENS_4lessIS7_EELb1EEELi1ELb1EEC2B8ue170006IRKSD_vEEOT_, symObjAddr: 0x7E54, symBinAddr: 0x10000B0F4, symSize: 0x18 }
  - { offsetInCU: 0x12DEA, offset: 0x22D08, size: 0x8, addend: 0x0, symName: __ZNSt3__13mapINS_12basic_stringIcNS_11char_traitsIcEENS_9allocatorIcEEEE7ChannelNS_4lessIS6_EENS4_INS_4pairIKS6_S7_EEEEEC2B8ue170006Ev, symObjAddr: 0x7E6C, symBinAddr: 0x10000B10C, symSize: 0x40 }
  - { offsetInCU: 0x12E13, offset: 0x22D31, size: 0x8, addend: 0x0, symName: __ZNSt3__119__map_value_compareINS_12basic_stringIcNS_11char_traitsIcEENS_9allocatorIcEEEENS_12__value_typeIS6_7ChannelEENS_4lessIS6_EELb1EEC1B8ue170006ESB_, symObjAddr: 0x7EAC, symBinAddr: 0x10000B14C, symSize: 0x2C }
  - { offsetInCU: 0x12E4B, offset: 0x22D69, size: 0x8, addend: 0x0, symName: __ZNSt3__16__treeINS_12__value_typeINS_12basic_stringIcNS_11char_traitsIcEENS_9allocatorIcEEEE7ChannelEENS_19__map_value_compareIS7_S9_NS_4lessIS7_EELb1EEENS5_IS9_EEEC1ERKSD_, symObjAddr: 0x7ED8, symBinAddr: 0x10000B178, symSize: 0x34 }
  - { offsetInCU: 0x12E85, offset: 0x22DA3, size: 0x8, addend: 0x0, symName: __ZNSt3__119__map_value_compareINS_12basic_stringIcNS_11char_traitsIcEENS_9allocatorIcEEEENS_12__value_typeIS6_7ChannelEENS_4lessIS6_EELb1EEC2B8ue170006ESB_, symObjAddr: 0x7F0C, symBinAddr: 0x10000B1AC, symSize: 0x14 }
  - { offsetInCU: 0x12EBD, offset: 0x22DDB, size: 0x8, addend: 0x0, symName: __ZNSt3__16__treeINS_12__value_typeINS_12basic_stringIcNS_11char_traitsIcEENS_9allocatorIcEEEE7ChannelEENS_19__map_value_compareIS7_S9_NS_4lessIS7_EELb1EEENS5_IS9_EEEC2ERKSD_, symObjAddr: 0x7F20, symBinAddr: 0x10000B1C0, symSize: 0x70 }
  - { offsetInCU: 0x12EF7, offset: 0x22E15, size: 0x8, addend: 0x0, symName: __ZNSt3__117__compressed_pairINS_15__tree_end_nodeIPNS_16__tree_node_baseIPvEEEENS_9allocatorINS_11__tree_nodeINS_12__value_typeINS_12basic_stringIcNS_11char_traitsIcEENS7_IcEEEE7ChannelEES3_EEEEEC1B8ue170006ILb1EvEEv, symObjAddr: 0x7F90, symBinAddr: 0x10000B230, symSize: 0x2C }
  - { offsetInCU: 0x12F2B, offset: 0x22E49, size: 0x8, addend: 0x0, symName: __ZNSt3__117__compressed_pairImNS_19__map_value_compareINS_12basic_stringIcNS_11char_traitsIcEENS_9allocatorIcEEEENS_12__value_typeIS7_7ChannelEENS_4lessIS7_EELb1EEEEC1B8ue170006IiRKSD_EEOT_OT0_, symObjAddr: 0x7FBC, symBinAddr: 0x10000B25C, symSize: 0x3C }
  - { offsetInCU: 0x12F82, offset: 0x22EA0, size: 0x8, addend: 0x0, symName: __ZNSt3__117__compressed_pairINS_15__tree_end_nodeIPNS_16__tree_node_baseIPvEEEENS_9allocatorINS_11__tree_nodeINS_12__value_typeINS_12basic_stringIcNS_11char_traitsIcEENS7_IcEEEE7ChannelEES3_EEEEEC2B8ue170006ILb1EvEEv, symObjAddr: 0x7FF8, symBinAddr: 0x10000B298, symSize: 0x34 }
  - { offsetInCU: 0x12FB6, offset: 0x22ED4, size: 0x8, addend: 0x0, symName: __ZNSt3__122__compressed_pair_elemINS_9allocatorINS_11__tree_nodeINS_12__value_typeINS_12basic_stringIcNS_11char_traitsIcEENS1_IcEEEE7ChannelEEPvEEEELi1ELb1EEC2B8ue170006ENS_16__value_init_tagE, symObjAddr: 0x802C, symBinAddr: 0x10000B2CC, symSize: 0x2C }
  - { offsetInCU: 0x12FEA, offset: 0x22F08, size: 0x8, addend: 0x0, symName: __ZNSt3__19allocatorINS_11__tree_nodeINS_12__value_typeINS_12basic_stringIcNS_11char_traitsIcEENS0_IcEEEE7ChannelEEPvEEEC2B8ue170006Ev, symObjAddr: 0x8058, symBinAddr: 0x10000B2F8, symSize: 0x2C }
  - { offsetInCU: 0x13013, offset: 0x22F31, size: 0x8, addend: 0x0, symName: __ZNSt3__116__non_trivial_ifILb1ENS_9allocatorINS_11__tree_nodeINS_12__value_typeINS_12basic_stringIcNS_11char_traitsIcEENS1_IcEEEE7ChannelEEPvEEEEEC2B8ue170006Ev, symObjAddr: 0x8084, symBinAddr: 0x10000B324, symSize: 0x14 }
  - { offsetInCU: 0x1303C, offset: 0x22F5A, size: 0x8, addend: 0x0, symName: __ZNSt3__117__compressed_pairImNS_19__map_value_compareINS_12basic_stringIcNS_11char_traitsIcEENS_9allocatorIcEEEENS_12__value_typeIS7_7ChannelEENS_4lessIS7_EELb1EEEEC2B8ue170006IiRKSD_EEOT_OT0_, symObjAddr: 0x8098, symBinAddr: 0x10000B338, symSize: 0x44 }
  - { offsetInCU: 0x13093, offset: 0x22FB1, size: 0x8, addend: 0x0, symName: __ZNSt3__122__compressed_pair_elemINS_19__map_value_compareINS_12basic_stringIcNS_11char_traitsIcEENS_9allocatorIcEEEENS_12__value_typeIS7_7ChannelEENS_4lessIS7_EELb1EEELi1ELb1EEC2B8ue170006IRKSD_vEEOT_, symObjAddr: 0x80DC, symBinAddr: 0x10000B37C, symSize: 0x18 }
  - { offsetInCU: 0x130D4, offset: 0x22FF2, size: 0x8, addend: 0x0, symName: __ZNSt3__114pointer_traitsIPNS_4pairIKNS_12basic_stringIcNS_11char_traitsIcEENS_9allocatorIcEEEE6ClientEEE10pointer_toB8ue170006ERSA_, symObjAddr: 0x8214, symBinAddr: 0x10000B394, symSize: 0x14 }
  - { offsetInCU: 0x130F7, offset: 0x23015, size: 0x8, addend: 0x0, symName: __ZNSt3__16__treeINS_12__value_typeINS_12basic_stringIcNS_11char_traitsIcEENS_9allocatorIcEEEE6ClientEENS_19__map_value_compareIS7_S9_NS_4lessIS7_EELb1EEENS5_IS9_EEE14__erase_uniqueIS7_EEmRKT_, symObjAddr: 0x8228, symBinAddr: 0x10000B3A8, symSize: 0xA0 }
  - { offsetInCU: 0x13146, offset: 0x23064, size: 0x8, addend: 0x0, symName: __ZNSt3__16__treeINS_12__value_typeINS_12basic_stringIcNS_11char_traitsIcEENS_9allocatorIcEEEE6ClientEENS_19__map_value_compareIS7_S9_NS_4lessIS7_EELb1EEENS5_IS9_EEE5eraseENS_21__tree_const_iteratorIS9_PNS_11__tree_nodeIS9_PvEElEE, symObjAddr: 0x82C8, symBinAddr: 0x10000B448, symSize: 0x98 }
  - { offsetInCU: 0x131AC, offset: 0x230CA, size: 0x8, addend: 0x0, symName: __ZNSt3__121__tree_const_iteratorINS_12__value_typeINS_12basic_stringIcNS_11char_traitsIcEENS_9allocatorIcEEEE6ClientEEPNS_11__tree_nodeIS9_PvEElEC1B8ue170006ENS_15__tree_iteratorIS9_SD_lEE, symObjAddr: 0x8360, symBinAddr: 0x10000B4E0, symSize: 0x34 }
  - { offsetInCU: 0x131E4, offset: 0x23102, size: 0x8, addend: 0x0, symName: __ZNKSt3__121__tree_const_iteratorINS_12__value_typeINS_12basic_stringIcNS_11char_traitsIcEENS_9allocatorIcEEEE6ClientEEPNS_11__tree_nodeIS9_PvEElE8__get_npB8ue170006Ev, symObjAddr: 0x8394, symBinAddr: 0x10000B514, symSize: 0x18 }
  - { offsetInCU: 0x13209, offset: 0x23127, size: 0x8, addend: 0x0, symName: __ZNSt3__16__treeINS_12__value_typeINS_12basic_stringIcNS_11char_traitsIcEENS_9allocatorIcEEEE6ClientEENS_19__map_value_compareIS7_S9_NS_4lessIS7_EELb1EEENS5_IS9_EEE21__remove_node_pointerEPNS_11__tree_nodeIS9_PvEE, symObjAddr: 0x83AC, symBinAddr: 0x10000B52C, symSize: 0xAC }
  - { offsetInCU: 0x1324F, offset: 0x2316D, size: 0x8, addend: 0x0, symName: __ZNKSt3__121__tree_const_iteratorINS_12__value_typeINS_12basic_stringIcNS_11char_traitsIcEENS_9allocatorIcEEEE6ClientEEPNS_11__tree_nodeIS9_PvEElEdeB8ue170006Ev, symObjAddr: 0x8458, symBinAddr: 0x10000B5D8, symSize: 0x28 }
  - { offsetInCU: 0x13273, offset: 0x23191, size: 0x8, addend: 0x0, symName: __ZNSt3__115__tree_iteratorINS_12__value_typeINS_12basic_stringIcNS_11char_traitsIcEENS_9allocatorIcEEEE6ClientEEPNS_11__tree_nodeIS9_PvEElEC1B8ue170006ESD_, symObjAddr: 0x8480, symBinAddr: 0x10000B600, symSize: 0x34 }
  - { offsetInCU: 0x132AB, offset: 0x231C9, size: 0x8, addend: 0x0, symName: __ZNSt3__115__tree_iteratorINS_12__value_typeINS_12basic_stringIcNS_11char_traitsIcEENS_9allocatorIcEEEE6ClientEEPNS_11__tree_nodeIS9_PvEElEC2B8ue170006ESD_, symObjAddr: 0x8B94, symBinAddr: 0x10000BD14, symSize: 0x20 }
  - { offsetInCU: 0x132E3, offset: 0x23201, size: 0x8, addend: 0x0, symName: __ZNSt3__121__tree_const_iteratorINS_12__value_typeINS_12basic_stringIcNS_11char_traitsIcEENS_9allocatorIcEEEE6ClientEEPNS_11__tree_nodeIS9_PvEElEC2B8ue170006ENS_15__tree_iteratorIS9_SD_lEE, symObjAddr: 0x8C34, symBinAddr: 0x10000BDB4, symSize: 0x20 }
  - { offsetInCU: 0xA9CA, offset: 0x2DD47, size: 0x8, addend: 0x0, symName: __Z6strchrB8ue170006Ua9enable_ifIXLb1EEEPci, symObjAddr: 0xB60, symBinAddr: 0x10000C608, symSize: 0x2C }
  - { offsetInCU: 0xAAD5, offset: 0x2DE52, size: 0x8, addend: 0x0, symName: __Z7isalnumi, symObjAddr: 0x100C, symBinAddr: 0x10000CAB4, symSize: 0x28 }
  - { offsetInCU: 0xC31E, offset: 0x2F69B, size: 0x8, addend: 0x0, symName: __ZN6ClientC2Ei, symObjAddr: 0x0, symBinAddr: 0x10000BE30, symSize: 0x2B8 }
  - { offsetInCU: 0xC36E, offset: 0x2F6EB, size: 0x8, addend: 0x0, symName: __ZNSt3__16vectorINS_12basic_stringIcNS_11char_traitsIcEENS_9allocatorIcEEEENS4_IS6_EEEC1B8ue170006Ev, symObjAddr: 0x2E4, symBinAddr: 0x10000C0E8, symSize: 0x2C }
  - { offsetInCU: 0xC39B, offset: 0x2F718, size: 0x8, addend: 0x0, symName: __ZN6ClientC1Ei, symObjAddr: 0x3A8, symBinAddr: 0x10000C114, symSize: 0x34 }
  - { offsetInCU: 0xC42E, offset: 0x2F7AB, size: 0x8, addend: 0x0, symName: __ZN6Client7receiveEiR6fd_setRNSt3__13mapINS2_12basic_stringIcNS2_11char_traitsIcEENS2_9allocatorIcEEEES_NS2_4lessIS9_EENS7_INS2_4pairIKS9_S_EEEEEESH_RNS3_IS9_7ChannelSB_NS7_INSC_ISD_SI_EEEEEE, symObjAddr: 0x3DC, symBinAddr: 0x10000C148, symSize: 0x4A8 }
  - { offsetInCU: 0xC547, offset: 0x2F8C4, size: 0x8, addend: 0x0, symName: __ZNK6Client6get_fdEv, symObjAddr: 0xA24, symBinAddr: 0x10000C5F0, symSize: 0x18 }
  - { offsetInCU: 0xC56D, offset: 0x2F8EA, size: 0x8, addend: 0x0, symName: __ZN6ClientC2Ev, symObjAddr: 0xB8C, symBinAddr: 0x10000C634, symSize: 0x2B4 }
  - { offsetInCU: 0xC5AD, offset: 0x2F92A, size: 0x8, addend: 0x0, symName: __ZN6ClientC1Ev, symObjAddr: 0xE40, symBinAddr: 0x10000C8E8, symSize: 0x2C }
  - { offsetInCU: 0xC5D8, offset: 0x2F955, size: 0x8, addend: 0x0, symName: __ZN6Client12invalid_nickENSt3__112basic_stringIcNS0_11char_traitsIcEENS0_9allocatorIcEEEE, symObjAddr: 0xE6C, symBinAddr: 0x10000C914, symSize: 0x17C }
  - { offsetInCU: 0xC61A, offset: 0x2F997, size: 0x8, addend: 0x0, symName: __ZNKSt3__112basic_stringIcNS_11char_traitsIcEENS_9allocatorIcEEE6lengthB8ue170006Ev, symObjAddr: 0xFE8, symBinAddr: 0x10000CA90, symSize: 0x24 }
  - { offsetInCU: 0xC63E, offset: 0x2F9BB, size: 0x8, addend: 0x0, symName: __ZNSt3__112basic_stringIcNS_11char_traitsIcEENS_9allocatorIcEEEixB8ue170006Em, symObjAddr: 0x1034, symBinAddr: 0x10000CADC, symSize: 0x30 }
  - { offsetInCU: 0xC671, offset: 0x2F9EE, size: 0x8, addend: 0x0, symName: __ZN6Client8set_operEb, symObjAddr: 0x1064, symBinAddr: 0x10000CB0C, symSize: 0x2C }
  - { offsetInCU: 0xC6A6, offset: 0x2FA23, size: 0x8, addend: 0x0, symName: __ZN6Client7set_msgENSt3__112basic_stringIcNS0_11char_traitsIcEENS0_9allocatorIcEEEE, symObjAddr: 0x1090, symBinAddr: 0x10000CB38, symSize: 0x30 }
  - { offsetInCU: 0xC6DC, offset: 0x2FA59, size: 0x8, addend: 0x0, symName: __ZN6Client6set_idENSt3__112basic_stringIcNS0_11char_traitsIcEENS0_9allocatorIcEEEE, symObjAddr: 0x10C0, symBinAddr: 0x10000CB68, symSize: 0x30 }
  - { offsetInCU: 0xC712, offset: 0x2FA8F, size: 0x8, addend: 0x0, symName: __ZN6Client12set_hostnameENSt3__112basic_stringIcNS0_11char_traitsIcEENS0_9allocatorIcEEEE, symObjAddr: 0x10F0, symBinAddr: 0x10000CB98, symSize: 0x30 }
  - { offsetInCU: 0xC748, offset: 0x2FAC5, size: 0x8, addend: 0x0, symName: __ZN6Client14set_servernameENSt3__112basic_stringIcNS0_11char_traitsIcEENS0_9allocatorIcEEEE, symObjAddr: 0x1120, symBinAddr: 0x10000CBC8, symSize: 0x30 }
  - { offsetInCU: 0xC77E, offset: 0x2FAFB, size: 0x8, addend: 0x0, symName: __ZN6Client12set_realnameENSt3__112basic_stringIcNS0_11char_traitsIcEENS0_9allocatorIcEEEE, symObjAddr: 0x1150, symBinAddr: 0x10000CBF8, symSize: 0x30 }
  - { offsetInCU: 0xC7B4, offset: 0x2FB31, size: 0x8, addend: 0x0, symName: __ZN6Client7getOperEv, symObjAddr: 0x1180, symBinAddr: 0x10000CC28, symSize: 0x1C }
  - { offsetInCU: 0xC7DB, offset: 0x2FB58, size: 0x8, addend: 0x0, symName: __ZNK6Client8get_authEv, symObjAddr: 0x119C, symBinAddr: 0x10000CC44, symSize: 0x18 }
  - { offsetInCU: 0xC802, offset: 0x2FB7F, size: 0x8, addend: 0x0, symName: __ZN6Client8send_msgENSt3__112basic_stringIcNS0_11char_traitsIcEENS0_9allocatorIcEEEE, symObjAddr: 0x11B4, symBinAddr: 0x10000CC5C, symSize: 0xF4 }
  - { offsetInCU: 0xC862, offset: 0x2FBDF, size: 0x8, addend: 0x0, symName: __ZNKSt3__112basic_stringIcNS_11char_traitsIcEENS_9allocatorIcEEE5c_strB8ue170006Ev, symObjAddr: 0x12F4, symBinAddr: 0x10000CD50, symSize: 0x24 }
  - { offsetInCU: 0xC886, offset: 0x2FC03, size: 0x8, addend: 0x0, symName: __ZN6Client8set_authEi, symObjAddr: 0x1318, symBinAddr: 0x10000CD74, symSize: 0x20 }
  - { offsetInCU: 0xC8BB, offset: 0x2FC38, size: 0x8, addend: 0x0, symName: __ZNK6Client7get_msgEv, symObjAddr: 0x1338, symBinAddr: 0x10000CD94, symSize: 0x3C }
  - { offsetInCU: 0xC8E2, offset: 0x2FC5F, size: 0x8, addend: 0x0, symName: __ZNK6Client8get_nickEv, symObjAddr: 0x1374, symBinAddr: 0x10000CDD0, symSize: 0x38 }
  - { offsetInCU: 0xC909, offset: 0x2FC86, size: 0x8, addend: 0x0, symName: __ZNK6Client6get_idEv, symObjAddr: 0x13AC, symBinAddr: 0x10000CE08, symSize: 0x3C }
  - { offsetInCU: 0xC930, offset: 0x2FCAD, size: 0x8, addend: 0x0, symName: __ZN6Client8set_nickENSt3__112basic_stringIcNS0_11char_traitsIcEENS0_9allocatorIcEEEE, symObjAddr: 0x13E8, symBinAddr: 0x10000CE44, symSize: 0x2C }
  - { offsetInCU: 0xC966, offset: 0x2FCE3, size: 0x8, addend: 0x0, symName: __ZN6Client8set_userENSt3__112basic_stringIcNS0_11char_traitsIcEENS0_9allocatorIcEEEE, symObjAddr: 0x1414, symBinAddr: 0x10000CE70, symSize: 0x30 }
  - { offsetInCU: 0xC99C, offset: 0x2FD19, size: 0x8, addend: 0x0, symName: __ZNK6Client8get_userEv, symObjAddr: 0x1444, symBinAddr: 0x10000CEA0, symSize: 0x3C }
  - { offsetInCU: 0xC9C3, offset: 0x2FD40, size: 0x8, addend: 0x0, symName: __ZNK6Client12get_hostnameEv, symObjAddr: 0x1480, symBinAddr: 0x10000CEDC, symSize: 0x3C }
  - { offsetInCU: 0xC9EA, offset: 0x2FD67, size: 0x8, addend: 0x0, symName: __ZNK6Client14get_servernameEv, symObjAddr: 0x14BC, symBinAddr: 0x10000CF18, symSize: 0x3C }
  - { offsetInCU: 0xCA11, offset: 0x2FD8E, size: 0x8, addend: 0x0, symName: __ZNK6Client12get_realnameEv, symObjAddr: 0x14F8, symBinAddr: 0x10000CF54, symSize: 0x3C }
  - { offsetInCU: 0xCA37, offset: 0x2FDB4, size: 0x8, addend: 0x0, symName: __ZN6ClientC2ERKS_, symObjAddr: 0x1534, symBinAddr: 0x10000CF90, symSize: 0x1D8 }
  - { offsetInCU: 0xCA70, offset: 0x2FDED, size: 0x8, addend: 0x0, symName: __ZN6ClientaSERKS_, symObjAddr: 0x170C, symBinAddr: 0x10000D168, symSize: 0x134 }
  - { offsetInCU: 0xCABB, offset: 0x2FE38, size: 0x8, addend: 0x0, symName: __ZN6ClientC1ERKS_, symObjAddr: 0x1840, symBinAddr: 0x10000D29C, symSize: 0x34 }
  - { offsetInCU: 0xCAF3, offset: 0x2FE70, size: 0x8, addend: 0x0, symName: __ZlsRNSt3__113basic_ostreamIcNS_11char_traitsIcEEEERK6Client, symObjAddr: 0x1874, symBinAddr: 0x10000D2D0, symSize: 0x124 }
  - { offsetInCU: 0xCB2D, offset: 0x2FEAA, size: 0x8, addend: 0x0, symName: __Z8__istypeim, symObjAddr: 0x1998, symBinAddr: 0x10000D3F4, symSize: 0x8C }
  - { offsetInCU: 0xCB67, offset: 0x2FEE4, size: 0x8, addend: 0x0, symName: __Z7isasciii, symObjAddr: 0x1A24, symBinAddr: 0x10000D480, symSize: 0x24 }
  - { offsetInCU: 0xCB99, offset: 0x2FF16, size: 0x8, addend: 0x0, symName: __ZNSt3__16vectorINS_12basic_stringIcNS_11char_traitsIcEENS_9allocatorIcEEEENS4_IS6_EEEC2B8ue170006Ev, symObjAddr: 0x1FE0, symBinAddr: 0x10000D4A4, symSize: 0x44 }
  - { offsetInCU: 0xCBC7, offset: 0x2FF44, size: 0x8, addend: 0x0, symName: __ZNSt3__117__compressed_pairIPNS_12basic_stringIcNS_11char_traitsIcEENS_9allocatorIcEEEENS4_IS6_EEEC1B8ue170006IDnNS_18__default_init_tagEEEOT_OT0_, symObjAddr: 0x2024, symBinAddr: 0x10000D4E8, symSize: 0x3C }
  - { offsetInCU: 0xCC1E, offset: 0x2FF9B, size: 0x8, addend: 0x0, symName: __ZNSt3__117__compressed_pairIPNS_12basic_stringIcNS_11char_traitsIcEENS_9allocatorIcEEEENS4_IS6_EEEC2B8ue170006IDnNS_18__default_init_tagEEEOT_OT0_, symObjAddr: 0x2060, symBinAddr: 0x10000D524, symSize: 0x40 }
  - { offsetInCU: 0xCC75, offset: 0x2FFF2, size: 0x8, addend: 0x0, symName: __ZNSt3__122__compressed_pair_elemIPNS_12basic_stringIcNS_11char_traitsIcEENS_9allocatorIcEEEELi0ELb0EEC2B8ue170006IDnvEEOT_, symObjAddr: 0x20A0, symBinAddr: 0x10000D564, symSize: 0x1C }
  - { offsetInCU: 0xCCB6, offset: 0x30033, size: 0x8, addend: 0x0, symName: __ZNSt3__122__compressed_pair_elemINS_9allocatorINS_12basic_stringIcNS_11char_traitsIcEENS1_IcEEEEEELi1ELb1EEC2B8ue170006ENS_18__default_init_tagE, symObjAddr: 0x20BC, symBinAddr: 0x10000D580, symSize: 0x2C }
  - { offsetInCU: 0xCCEA, offset: 0x30067, size: 0x8, addend: 0x0, symName: __ZNSt3__19allocatorINS_12basic_stringIcNS_11char_traitsIcEENS0_IcEEEEEC2B8ue170006Ev, symObjAddr: 0x20E8, symBinAddr: 0x10000D5AC, symSize: 0x2C }
  - { offsetInCU: 0xCD13, offset: 0x30090, size: 0x8, addend: 0x0, symName: __ZNSt3__116__non_trivial_ifILb1ENS_9allocatorINS_12basic_stringIcNS_11char_traitsIcEENS1_IcEEEEEEEC2B8ue170006Ev, symObjAddr: 0x2114, symBinAddr: 0x10000D5D8, symSize: 0x14 }
  - { offsetInCU: 0x3AFC, offset: 0x33C0F, size: 0x8, addend: 0x0, symName: __ZNSt3__17advanceB8ue170006IPillvEEvRT_T0_, symObjAddr: 0xE8F8, symBinAddr: 0x10001B47C, symSize: 0x38 }
  - { offsetInCU: 0xB485, offset: 0x3B598, size: 0x8, addend: 0x0, symName: __ZNSt3__17advanceB8ue170006INS_21__tree_const_iteratorINS_12__value_typeINS_12basic_stringIcNS_11char_traitsIcEENS_9allocatorIcEEEEP6ClientEEPNS_11__tree_nodeISB_PvEElEEllvEEvRT_T0_, symObjAddr: 0x11938, symBinAddr: 0x10001DCA4, symSize: 0x38 }
  - { offsetInCU: 0xFC99, offset: 0x3FDAC, size: 0x8, addend: 0x0, symName: __ZNSt3__1neB8ue170006IPcEEbRKNS_11__wrap_iterIT_EES6_, symObjAddr: 0x308, symBinAddr: 0x10000D8F4, symSize: 0x34 }
  - { offsetInCU: 0x10606, offset: 0x40719, size: 0x8, addend: 0x0, symName: __ZNSt3__1rsB8ue170006IcNS_11char_traitsIcEENS_9allocatorIcEEEERNS_13basic_istreamIT_T0_EES9_RNS_12basic_stringIS6_S7_T1_EE, symObjAddr: 0x84C, symBinAddr: 0x10000DDD4, symSize: 0x324 }
  - { offsetInCU: 0x106E7, offset: 0x407FA, size: 0x8, addend: 0x0, symName: __ZNSt3__17getlineB8ue170006IcNS_11char_traitsIcEENS_9allocatorIcEEEERNS_13basic_istreamIT_T0_EES9_RNS_12basic_stringIS6_S7_T1_EES6_, symObjAddr: 0xE3C, symBinAddr: 0x10000E398, symSize: 0x234 }
  - { offsetInCU: 0x11AA7, offset: 0x41BBA, size: 0x8, addend: 0x0, symName: __ZNSt3__1eqB8ue170006ERKNS_14__map_iteratorINS_15__tree_iteratorINS_12__value_typeINS_12basic_stringIcNS_11char_traitsIcEENS_9allocatorIcEEEE7ChannelEEPNS_11__tree_nodeISA_PvEElEEEESI_, symObjAddr: 0x1D94, symBinAddr: 0x10000F29C, symSize: 0x30 }
  - { offsetInCU: 0x11C1B, offset: 0x41D2E, size: 0x8, addend: 0x0, symName: __ZNSt3__1neB8ue170006IPNS_12basic_stringIcNS_11char_traitsIcEENS_9allocatorIcEEEEEEbRKNS_11__wrap_iterIT_EESC_, symObjAddr: 0x24E8, symBinAddr: 0x10000F6C4, symSize: 0x34 }
  - { offsetInCU: 0x11C69, offset: 0x41D7C, size: 0x8, addend: 0x0, symName: __ZNSt3__1neB8ue170006IcNS_11char_traitsIcEENS_9allocatorIcEEEEbRKNS_12basic_stringIT_T0_T1_EESB_, symObjAddr: 0x31EC, symBinAddr: 0x100010288, symSize: 0x34 }
  - { offsetInCU: 0x11CC1, offset: 0x41DD4, size: 0x8, addend: 0x0, symName: __ZNSt3__1eqB8ue170006ERKNS_14__map_iteratorINS_15__tree_iteratorINS_12__value_typeINS_12basic_stringIcNS_11char_traitsIcEENS_9allocatorIcEEEE6ClientEEPNS_11__tree_nodeISA_PvEElEEEESI_, symObjAddr: 0x420C, symBinAddr: 0x100011210, symSize: 0x30 }
  - { offsetInCU: 0x124FB, offset: 0x4260E, size: 0x8, addend: 0x0, symName: __ZNSt3__17getlineB8ue170006IcNS_11char_traitsIcEENS_9allocatorIcEEEERNS_13basic_istreamIT_T0_EES9_RNS_12basic_stringIS6_S7_T1_EE, symObjAddr: 0xCC18, symBinAddr: 0x1000198F0, symSize: 0x5C }
  - { offsetInCU: 0x1255E, offset: 0x42671, size: 0x8, addend: 0x0, symName: __ZNSt3__19make_pairB8ue170006IRA4_KcM6ServerFvRKNS_12basic_stringIcNS_11char_traitsIcEENS_9allocatorIcEEEER6ClientEEENS_4pairINS_18__unwrap_ref_decayIT_E4typeENSI_IT0_E4typeEEEOSJ_OSM_, symObjAddr: 0xDC28, symBinAddr: 0x10001A900, symSize: 0x40 }
  - { offsetInCU: 0x1265A, offset: 0x4276D, size: 0x8, addend: 0x0, symName: __ZNSt3__19make_pairB8ue170006IRA5_KcM6ServerFvRKNS_12basic_stringIcNS_11char_traitsIcEENS_9allocatorIcEEEER6ClientEEENS_4pairINS_18__unwrap_ref_decayIT_E4typeENSI_IT0_E4typeEEEOSJ_OSM_, symObjAddr: 0xDCC8, symBinAddr: 0x10001A9A0, symSize: 0x40 }
  - { offsetInCU: 0x126A9, offset: 0x427BC, size: 0x8, addend: 0x0, symName: __ZNSt3__19make_pairB8ue170006IRA6_KcM6ServerFvRKNS_12basic_stringIcNS_11char_traitsIcEENS_9allocatorIcEEEER6ClientEEENS_4pairINS_18__unwrap_ref_decayIT_E4typeENSI_IT0_E4typeEEEOSJ_OSM_, symObjAddr: 0xDD08, symBinAddr: 0x10001A9E0, symSize: 0x40 }
  - { offsetInCU: 0x126F8, offset: 0x4280B, size: 0x8, addend: 0x0, symName: __ZNSt3__19make_pairB8ue170006IRA7_KcM6ServerFvRKNS_12basic_stringIcNS_11char_traitsIcEENS_9allocatorIcEEEER6ClientEEENS_4pairINS_18__unwrap_ref_decayIT_E4typeENSI_IT0_E4typeEEEOSJ_OSM_, symObjAddr: 0xDD48, symBinAddr: 0x10001AA20, symSize: 0x40 }
  - { offsetInCU: 0x12747, offset: 0x4285A, size: 0x8, addend: 0x0, symName: __ZNSt3__19make_pairB8ue170006IRA8_KcM6ServerFvRKNS_12basic_stringIcNS_11char_traitsIcEENS_9allocatorIcEEEER6ClientEEENS_4pairINS_18__unwrap_ref_decayIT_E4typeENSI_IT0_E4typeEEEOSJ_OSM_, symObjAddr: 0xDD88, symBinAddr: 0x10001AA60, symSize: 0x40 }
  - { offsetInCU: 0x12796, offset: 0x428A9, size: 0x8, addend: 0x0, symName: __ZNSt3__1neB8ue170006ERKNS_14__map_iteratorINS_15__tree_iteratorINS_12__value_typeINS_12basic_stringIcNS_11char_traitsIcEENS_9allocatorIcEEEEM6ServerFvRKS8_R6ClientEEEPNS_11__tree_nodeISG_PvEElEEEESO_, symObjAddr: 0xDDC8, symBinAddr: 0x10001AAA0, symSize: 0x30 }
  - { offsetInCU: 0x127D3, offset: 0x428E6, size: 0x8, addend: 0x0, symName: __ZNSt3__18distanceB8ue170006IPiEENS_15iterator_traitsIT_E15difference_typeES3_S3_, symObjAddr: 0xE478, symBinAddr: 0x10001AFFC, symSize: 0x2C }
  - { offsetInCU: 0x12816, offset: 0x42929, size: 0x8, addend: 0x0, symName: __ZNSt3__14nextB8ue170006IPiEENS_9enable_ifIXsr29__has_input_iterator_categoryIT_EE5valueES3_E4typeES3_NS_15iterator_traitsIS3_E15difference_typeE, symObjAddr: 0xE50C, symBinAddr: 0x10001B090, symSize: 0x34 }
  - { offsetInCU: 0x12859, offset: 0x4296C, size: 0x8, addend: 0x0, symName: __ZNSt3__14copyB8ue170006IPiS1_EET0_T_S3_S2_, symObjAddr: 0xE540, symBinAddr: 0x10001B0C4, symSize: 0x40 }
  - { offsetInCU: 0x128B3, offset: 0x429C6, size: 0x8, addend: 0x0, symName: __ZNSt3__16__copyB8ue170006INS_17_ClassicAlgPolicyEPiS2_S2_EENS_4pairIT0_T2_EES4_T1_S5_, symObjAddr: 0xE614, symBinAddr: 0x10001B198, symSize: 0x44 }
  - { offsetInCU: 0x1291F, offset: 0x42A32, size: 0x8, addend: 0x0, symName: __ZNSt3__121__convert_to_integralB8ue170006El, symObjAddr: 0xE930, symBinAddr: 0x10001B4B4, symSize: 0x14 }
  - { offsetInCU: 0x1294B, offset: 0x42A5E, size: 0x8, addend: 0x0, symName: __ZNSt3__19__advanceB8ue170006IPiEEvRT_NS_15iterator_traitsIS2_E15difference_typeENS_26random_access_iterator_tagE, symObjAddr: 0xE944, symBinAddr: 0x10001B4C8, symSize: 0x28 }
  - { offsetInCU: 0x12996, offset: 0x42AA9, size: 0x8, addend: 0x0, symName: __ZNSt3__130__uninitialized_allocator_copyB8ue170006INS_9allocatorIiEEPiS3_S3_EET2_RT_T0_T1_S4_, symObjAddr: 0xE9A8, symBinAddr: 0x10001B52C, symSize: 0x80 }
  - { offsetInCU: 0x12A35, offset: 0x42B48, size: 0x8, addend: 0x0, symName: __ZNSt3__114__unwrap_rangeB8ue170006IPiS1_EENS_4pairIT0_S3_EET_S5_, symObjAddr: 0xEAC0, symBinAddr: 0x10001B644, symSize: 0x60 }
  - { offsetInCU: 0x12A81, offset: 0x42B94, size: 0x8, addend: 0x0, symName: __ZNSt3__135__uninitialized_allocator_copy_implB8ue170006INS_9allocatorIiEEPiS3_S3_EET2_RT_T0_T1_S4_, symObjAddr: 0xEB20, symBinAddr: 0x10001B6A4, symSize: 0xFC }
  - { offsetInCU: 0x12B21, offset: 0x42C34, size: 0x8, addend: 0x0, symName: __ZNSt3__113__unwrap_iterB8ue170006IPiNS_18__unwrap_iter_implIS1_Lb1EEELi0EEEDTclsrT0_8__unwrapclsr3stdE7declvalIT_EEEES5_, symObjAddr: 0xEC1C, symBinAddr: 0x10001B7A0, symSize: 0x24 }
  - { offsetInCU: 0x12B66, offset: 0x42C79, size: 0x8, addend: 0x0, symName: __ZNSt3__113__rewrap_iterB8ue170006IPiS1_NS_18__unwrap_iter_implIS1_Lb1EEEEET_S4_T0_, symObjAddr: 0xEC40, symBinAddr: 0x10001B7C4, symSize: 0x50 }
  - { offsetInCU: 0x12BBB, offset: 0x42CCE, size: 0x8, addend: 0x0, symName: __ZNSt3__19make_pairB8ue170006IPiS1_EENS_4pairINS_18__unwrap_ref_decayIT_E4typeENS3_IT0_E4typeEEEOS4_OS7_, symObjAddr: 0xEC90, symBinAddr: 0x10001B814, symSize: 0x38 }
  - { offsetInCU: 0x12CB7, offset: 0x42DCA, size: 0x8, addend: 0x0, symName: __ZNSt3__122__make_exception_guardB8ue170006INS_29_AllocatorDestroyRangeReverseINS_9allocatorIiEEPiEEEENS_28__exception_guard_exceptionsIT_EES7_, symObjAddr: 0xED38, symBinAddr: 0x10001B8BC, symSize: 0x4C }
  - { offsetInCU: 0x12CED, offset: 0x42E00, size: 0x8, addend: 0x0, symName: __ZNSt3__112__to_addressB8ue170006IiEEPT_S2_, symObjAddr: 0xEDFC, symBinAddr: 0x10001B980, symSize: 0x14 }
  - { offsetInCU: 0x12D22, offset: 0x42E35, size: 0x8, addend: 0x0, symName: __ZNSt3__119__allocator_destroyB8ue170006INS_9allocatorIiEENS_16reverse_iteratorIPiEES5_EEvRT_T0_T1_, symObjAddr: 0xEFCC, symBinAddr: 0x10001BB50, symSize: 0x70 }
  - { offsetInCU: 0x12D85, offset: 0x42E98, size: 0x8, addend: 0x0, symName: __ZNSt3__1neB8ue170006IPiS1_EEbRKNS_16reverse_iteratorIT_EERKNS2_IT0_EE, symObjAddr: 0xF070, symBinAddr: 0x10001BBF4, symSize: 0x48 }
  - { offsetInCU: 0x12DD1, offset: 0x42EE4, size: 0x8, addend: 0x0, symName: __ZNSt3__112__to_addressB8ue170006INS_16reverse_iteratorIPiEEvEEu7__decayIDTclsr19__to_address_helperIT_EE6__callclsr3stdE7declvalIRKS4_EEEEES6_, symObjAddr: 0xF0E4, symBinAddr: 0x10001BC68, symSize: 0x24 }
  - { offsetInCU: 0x12E84, offset: 0x42F97, size: 0x8, addend: 0x0, symName: __ZNSt3__123__dispatch_copy_or_moveB8ue170006INS_17_ClassicAlgPolicyENS_11__copy_loopIS1_EENS_14__copy_trivialEPiS5_S5_EENS_4pairIT2_T4_EES7_T3_S8_, symObjAddr: 0xF2E0, symBinAddr: 0x10001BE64, symSize: 0x44 }
  - { offsetInCU: 0x12F02, offset: 0x43015, size: 0x8, addend: 0x0, symName: __ZNSt3__121__unwrap_and_dispatchB8ue170006INS_10__overloadINS_11__copy_loopINS_17_ClassicAlgPolicyEEENS_14__copy_trivialEEEPiS7_S7_Li0EEENS_4pairIT0_T2_EES9_T1_SA_, symObjAddr: 0xF324, symBinAddr: 0x10001BEA8, symSize: 0xB4 }
  - { offsetInCU: 0x13015, offset: 0x43128, size: 0x8, addend: 0x0, symName: __ZNSt3__114__rewrap_rangeB8ue170006IPiS1_EET_S2_T0_, symObjAddr: 0xF420, symBinAddr: 0x10001BFA4, symSize: 0x2C }
  - { offsetInCU: 0x13061, offset: 0x43174, size: 0x8, addend: 0x0, symName: __ZNSt3__119__copy_trivial_implB8ue170006IiiEENS_4pairIPT_PT0_EES3_S3_S5_, symObjAddr: 0xF44C, symBinAddr: 0x10001BFD0, symSize: 0x80 }
  - { offsetInCU: 0x130C9, offset: 0x431DC, size: 0x8, addend: 0x0, symName: __ZNSt3__119__constexpr_memmoveB8ue170006IiiLi0EEEPT_S2_PT0_NS_15__element_countE, symObjAddr: 0xF4CC, symBinAddr: 0x10001C050, symSize: 0xA0 }
  - { offsetInCU: 0x13138, offset: 0x4324B, size: 0x8, addend: 0x0, symName: __ZNSt3__19make_pairB8ue170006IRPiS1_EENS_4pairINS_18__unwrap_ref_decayIT_E4typeENS4_IT0_E4typeEEEOS5_OS8_, symObjAddr: 0xF56C, symBinAddr: 0x10001C0F0, symSize: 0x38 }
  - { offsetInCU: 0x13187, offset: 0x4329A, size: 0x8, addend: 0x0, symName: __ZNSt3__119__allocate_at_leastB8ue170006INS_9allocatorIiEEEENS_19__allocation_resultINS_16allocator_traitsIT_E7pointerEEERS5_m, symObjAddr: 0xFA80, symBinAddr: 0x10001C57C, symSize: 0x40 }
  - { offsetInCU: 0x133D5, offset: 0x434E8, size: 0x8, addend: 0x0, symName: __ZNSt3__13maxB8ue170006ImEERKT_S3_S3_, symObjAddr: 0xFEBC, symBinAddr: 0x10001C7A0, symSize: 0x2C }
  - { offsetInCU: 0x13418, offset: 0x4352B, size: 0x8, addend: 0x0, symName: __ZNSt3__13maxB8ue170006ImNS_6__lessIvvEEEERKT_S5_S5_T0_, symObjAddr: 0xFEE8, symBinAddr: 0x10001C7CC, symSize: 0x54 }
  - { offsetInCU: 0x13472, offset: 0x43585, size: 0x8, addend: 0x0, symName: __ZNSt3__110__distanceB8ue170006IPiEENS_15iterator_traitsIT_E15difference_typeES3_S3_NS_26random_access_iterator_tagE, symObjAddr: 0xFF3C, symBinAddr: 0x10001C820, symSize: 0x28 }
  - { offsetInCU: 0x134C0, offset: 0x435D3, size: 0x8, addend: 0x0, symName: __ZNSt3__1neB8ue170006ERKNS_20__map_const_iteratorINS_21__tree_const_iteratorINS_12__value_typeINS_12basic_stringIcNS_11char_traitsIcEENS_9allocatorIcEEEEP6ClientEEPNS_11__tree_nodeISB_PvEElEEEESJ_, symObjAddr: 0x105F4, symBinAddr: 0x10001CE88, symSize: 0x30 }
  - { offsetInCU: 0x134FD, offset: 0x43610, size: 0x8, addend: 0x0, symName: __ZNSt3__1neB8ue170006ERKNS_21__tree_const_iteratorINS_12__value_typeINS_12basic_stringIcNS_11char_traitsIcEENS_9allocatorIcEEEEP6ClientEEPNS_11__tree_nodeISA_PvEElEESH_, symObjAddr: 0x106FC, symBinAddr: 0x10001CF90, symSize: 0x34 }
  - { offsetInCU: 0x1353A, offset: 0x4364D, size: 0x8, addend: 0x0, symName: __ZNSt3__1eqB8ue170006ERKNS_21__tree_const_iteratorINS_12__value_typeINS_12basic_stringIcNS_11char_traitsIcEENS_9allocatorIcEEEEP6ClientEEPNS_11__tree_nodeISA_PvEElEESH_, symObjAddr: 0x10730, symBinAddr: 0x10001CFC4, symSize: 0x30 }
  - { offsetInCU: 0x1359C, offset: 0x436AF, size: 0x8, addend: 0x0, symName: __ZNSt3__14nextB8ue170006INS_21__tree_const_iteratorINS_12__value_typeINS_12basic_stringIcNS_11char_traitsIcEENS_9allocatorIcEEEEP6ClientEEPNS_11__tree_nodeISB_PvEElEEEENS_9enable_ifIXsr29__has_input_iterator_categoryIT_EE5valueESI_E4typeESI_NS_15iterator_traitsISI_E15difference_typeE, symObjAddr: 0x11218, symBinAddr: 0x10001DAAC, symSize: 0x3C }
  - { offsetInCU: 0x135DF, offset: 0x436F2, size: 0x8, addend: 0x0, symName: __ZNSt3__116__tree_prev_iterB8ue170006IPNS_16__tree_node_baseIPvEEPNS_15__tree_end_nodeIS4_EEEET_T0_, symObjAddr: 0x117D8, symBinAddr: 0x10001DB88, symSize: 0xB8 }
  - { offsetInCU: 0x1362B, offset: 0x4373E, size: 0x8, addend: 0x0, symName: __ZNSt3__110__tree_maxB8ue170006IPNS_16__tree_node_baseIPvEEEET_S5_, symObjAddr: 0x11890, symBinAddr: 0x10001DC40, symSize: 0x40 }
  - { offsetInCU: 0x13660, offset: 0x43773, size: 0x8, addend: 0x0, symName: __ZNSt3__19__advanceB8ue170006INS_21__tree_const_iteratorINS_12__value_typeINS_12basic_stringIcNS_11char_traitsIcEENS_9allocatorIcEEEEP6ClientEEPNS_11__tree_nodeISB_PvEElEEEEvRT_NS_15iterator_traitsISH_E15difference_typeENS_26bidirectional_iterator_tagE, symObjAddr: 0x11970, symBinAddr: 0x10001DCDC, symSize: 0xA4 }
  - { offsetInCU: 0x1372E, offset: 0x43841, size: 0x8, addend: 0x0, symName: __ZNSt3__1eqB8ue170006IPcEEbRKNS_11__wrap_iterIT_EES6_, symObjAddr: 0x1301C, symBinAddr: 0x10001EC9C, symSize: 0x48 }
  - { offsetInCU: 0x13771, offset: 0x43884, size: 0x8, addend: 0x0, symName: __ZNSt3__1miB8ue170006IPKcPcEENS_11__wrap_iterIT_E15difference_typeERKS6_RKNS4_IT0_EE, symObjAddr: 0x1307C, symBinAddr: 0x10001ECFC, symSize: 0x40 }
  - { offsetInCU: 0x137BD, offset: 0x438D0, size: 0x8, addend: 0x0, symName: __ZNSt3__1miB8ue170006IPKcS2_EENS_11__wrap_iterIT_E15difference_typeERKS5_RKNS3_IT0_EE, symObjAddr: 0x130BC, symBinAddr: 0x10001ED3C, symSize: 0x40 }
  - { offsetInCU: 0x13809, offset: 0x4391C, size: 0x8, addend: 0x0, symName: __ZNSt3__119__allocate_at_leastB8ue170006INS_9allocatorINS_12basic_stringIcNS_11char_traitsIcEENS1_IcEEEEEEEENS_19__allocation_resultINS_16allocator_traitsIT_E7pointerEEERSA_m, symObjAddr: 0x14DB8, symBinAddr: 0x10001FA68, symSize: 0x40 }
  - { offsetInCU: 0x1384C, offset: 0x4395F, size: 0x8, addend: 0x0, symName: __ZNSt3__142__uninitialized_allocator_move_if_noexceptB8ue170006INS_9allocatorINS_12basic_stringIcNS_11char_traitsIcEENS1_IcEEEEEENS_16reverse_iteratorIPS6_EESA_SA_EET2_RT_T0_T1_SB_, symObjAddr: 0x14FA0, symBinAddr: 0x10001FC50, symSize: 0x134 }
  - { offsetInCU: 0x138EE, offset: 0x43A01, size: 0x8, addend: 0x0, symName: __ZNSt3__14swapB8ue170006IPNS_12basic_stringIcNS_11char_traitsIcEENS_9allocatorIcEEEEEEvRT_S9_, symObjAddr: 0x15120, symBinAddr: 0x10001FDD0, symSize: 0x3C }
  - { offsetInCU: 0x1393F, offset: 0x43A52, size: 0x8, addend: 0x0, symName: __ZNSt3__122__make_exception_guardB8ue170006INS_29_AllocatorDestroyRangeReverseINS_9allocatorINS_12basic_stringIcNS_11char_traitsIcEENS2_IcEEEEEENS_16reverse_iteratorIPS7_EEEEEENS_28__exception_guard_exceptionsIT_EESE_, symObjAddr: 0x15224, symBinAddr: 0x10001FED4, symSize: 0x4C }
  - { offsetInCU: 0x13975, offset: 0x43A88, size: 0x8, addend: 0x0, symName: __ZNSt3__1neB8ue170006IPNS_12basic_stringIcNS_11char_traitsIcEENS_9allocatorIcEEEES7_EEbRKNS_16reverse_iteratorIT_EERKNS8_IT0_EE, symObjAddr: 0x152B4, symBinAddr: 0x10001FF64, symSize: 0x48 }
  - { offsetInCU: 0x139C1, offset: 0x43AD4, size: 0x8, addend: 0x0, symName: __ZNSt3__112__to_addressB8ue170006INS_16reverse_iteratorIPNS_12basic_stringIcNS_11char_traitsIcEENS_9allocatorIcEEEEEEvEEu7__decayIDTclsr19__to_address_helperIT_EE6__callclsr3stdE7declvalIRKSA_EEEEESC_, symObjAddr: 0x152FC, symBinAddr: 0x10001FFAC, symSize: 0x24 }
  - { offsetInCU: 0x13A21, offset: 0x43B34, size: 0x8, addend: 0x0, symName: __ZNSt3__119__allocator_destroyB8ue170006INS_9allocatorINS_12basic_stringIcNS_11char_traitsIcEENS1_IcEEEEEENS_16reverse_iteratorINS8_IPS6_EEEESB_EEvRT_T0_T1_, symObjAddr: 0x155B8, symBinAddr: 0x100020268, symSize: 0x70 }
  - { offsetInCU: 0x13A86, offset: 0x43B99, size: 0x8, addend: 0x0, symName: __ZNSt3__1neB8ue170006INS_16reverse_iteratorIPNS_12basic_stringIcNS_11char_traitsIcEENS_9allocatorIcEEEEEES9_EEbRKNS1_IT_EERKNS1_IT0_EE, symObjAddr: 0x15664, symBinAddr: 0x100020314, symSize: 0x60 }
  - { offsetInCU: 0x13AD2, offset: 0x43BE5, size: 0x8, addend: 0x0, symName: __ZNSt3__112__to_addressB8ue170006INS_16reverse_iteratorINS1_IPNS_12basic_stringIcNS_11char_traitsIcEENS_9allocatorIcEEEEEEEEvEEu7__decayIDTclsr19__to_address_helperIT_EE6__callclsr3stdE7declvalIRKSB_EEEEESD_, symObjAddr: 0x156C4, symBinAddr: 0x100020374, symSize: 0x24 }
  - { offsetInCU: 0x13B32, offset: 0x43C45, size: 0x8, addend: 0x0, symName: __ZNSt3__110__str_findB8ue170006IcmNS_11char_traitsIcEELm18446744073709551615EEET0_PKT_S3_S6_S3_S3_, symObjAddr: 0x15A70, symBinAddr: 0x100020720, symSize: 0xE4 }
  - { offsetInCU: 0x13BDA, offset: 0x43CED, size: 0x8, addend: 0x0, symName: __ZNSt3__118__search_substringB8ue170006IcNS_11char_traitsIcEEEEPKT_S5_S5_S5_S5_, symObjAddr: 0x15B9C, symBinAddr: 0x100020804, symSize: 0x154 }
  - { offsetInCU: 0x13C77, offset: 0x43D8A, size: 0x8, addend: 0x0, symName: __ZNSt3__118__constexpr_memchrB8ue170006IKccEEPT_S3_T0_m, symObjAddr: 0x15D74, symBinAddr: 0x1000209DC, symSize: 0xC0 }
  - { offsetInCU: 0x13D29, offset: 0x43E3C, size: 0x8, addend: 0x0, symName: __ZNSt3__1eqB8ue170006IPNS_12basic_stringIcNS_11char_traitsIcEENS_9allocatorIcEEEEEEbRKNS_11__wrap_iterIT_EESC_, symObjAddr: 0x185E0, symBinAddr: 0x1000221C0, symSize: 0x48 }
  - { offsetInCU: 0x13D6C, offset: 0x43E7F, size: 0x8, addend: 0x0, symName: __ZNSt3__1eqB8ue170006INS_9allocatorIcEEEEbRKNS_12basic_stringIcNS_11char_traitsIcEET_EES9_, symObjAddr: 0x18E34, symBinAddr: 0x1000222A4, symSize: 0x148 }
  - { offsetInCU: 0x13DE2, offset: 0x43EF5, size: 0x8, addend: 0x0, symName: __ZNSt3__122__make_exception_guardB8ue170006INS_6vectorINS_12basic_stringIcNS_11char_traitsIcEENS_9allocatorIcEEEENS5_IS7_EEE16__destroy_vectorEEENS_28__exception_guard_exceptionsIT_EESC_, symObjAddr: 0x196D0, symBinAddr: 0x1000225E8, symSize: 0x40 }
  - { offsetInCU: 0x13E17, offset: 0x43F2A, size: 0x8, addend: 0x0, symName: __ZNSt3__130__uninitialized_allocator_copyB8ue170006INS_9allocatorINS_12basic_stringIcNS_11char_traitsIcEENS1_IcEEEEEEPS6_S8_S8_EET2_RT_T0_T1_S9_, symObjAddr: 0x198F8, symBinAddr: 0x100022810, symSize: 0x80 }
  - { offsetInCU: 0x13EB6, offset: 0x43FC9, size: 0x8, addend: 0x0, symName: __ZNSt3__114__unwrap_rangeB8ue170006IPNS_12basic_stringIcNS_11char_traitsIcEENS_9allocatorIcEEEES7_EENS_4pairIT0_S9_EET_SB_, symObjAddr: 0x19978, symBinAddr: 0x100022890, symSize: 0x60 }
  - { offsetInCU: 0x13F02, offset: 0x44015, size: 0x8, addend: 0x0, symName: __ZNSt3__135__uninitialized_allocator_copy_implB8ue170006INS_9allocatorINS_12basic_stringIcNS_11char_traitsIcEENS1_IcEEEEEEPS6_S8_S8_EET2_RT_T0_T1_S9_, symObjAddr: 0x199D8, symBinAddr: 0x1000228F0, symSize: 0xFC }
  - { offsetInCU: 0x13FA2, offset: 0x440B5, size: 0x8, addend: 0x0, symName: __ZNSt3__113__unwrap_iterB8ue170006IPNS_12basic_stringIcNS_11char_traitsIcEENS_9allocatorIcEEEENS_18__unwrap_iter_implIS7_Lb1EEELi0EEEDTclsrT0_8__unwrapclsr3stdE7declvalIT_EEEESB_, symObjAddr: 0x19AD4, symBinAddr: 0x1000229EC, symSize: 0x24 }
  - { offsetInCU: 0x13FE7, offset: 0x440FA, size: 0x8, addend: 0x0, symName: __ZNSt3__113__rewrap_iterB8ue170006IPNS_12basic_stringIcNS_11char_traitsIcEENS_9allocatorIcEEEES7_NS_18__unwrap_iter_implIS7_Lb1EEEEET_SA_T0_, symObjAddr: 0x19AF8, symBinAddr: 0x100022A10, symSize: 0x50 }
  - { offsetInCU: 0x1403C, offset: 0x4414F, size: 0x8, addend: 0x0, symName: __ZNSt3__19make_pairB8ue170006IPNS_12basic_stringIcNS_11char_traitsIcEENS_9allocatorIcEEEES7_EENS_4pairINS_18__unwrap_ref_decayIT_E4typeENS9_IT0_E4typeEEEOSA_OSD_, symObjAddr: 0x19B48, symBinAddr: 0x100022A60, symSize: 0x38 }
  - { offsetInCU: 0x14138, offset: 0x4424B, size: 0x8, addend: 0x0, symName: __ZNSt3__122__make_exception_guardB8ue170006INS_29_AllocatorDestroyRangeReverseINS_9allocatorINS_12basic_stringIcNS_11char_traitsIcEENS2_IcEEEEEEPS7_EEEENS_28__exception_guard_exceptionsIT_EESC_, symObjAddr: 0x19BF0, symBinAddr: 0x100022B08, symSize: 0x4C }
  - { offsetInCU: 0x1416E, offset: 0x44281, size: 0x8, addend: 0x0, symName: __ZNSt3__119__allocator_destroyB8ue170006INS_9allocatorINS_12basic_stringIcNS_11char_traitsIcEENS1_IcEEEEEENS_16reverse_iteratorIPS6_EESA_EEvRT_T0_T1_, symObjAddr: 0x19E78, symBinAddr: 0x100022D90, symSize: 0x70 }
  - { offsetInCU: 0x14242, offset: 0x44355, size: 0x8, addend: 0x0, symName: __ZNSt3__1neB8ue170006ERKNS_15__tree_iteratorINS_12__value_typeINS_12basic_stringIcNS_11char_traitsIcEENS_9allocatorIcEEEEM6ServerFvRKS7_R6ClientEEEPNS_11__tree_nodeISF_PvEElEESM_, symObjAddr: 0x1D124, symBinAddr: 0x10002460C, symSize: 0x34 }
  - { offsetInCU: 0x1427F, offset: 0x44392, size: 0x8, addend: 0x0, symName: __ZNSt3__1eqB8ue170006ERKNS_15__tree_iteratorINS_12__value_typeINS_12basic_stringIcNS_11char_traitsIcEENS_9allocatorIcEEEEM6ServerFvRKS7_R6ClientEEEPNS_11__tree_nodeISF_PvEElEESM_, symObjAddr: 0x1D208, symBinAddr: 0x1000246F0, symSize: 0x30 }
  - { offsetInCU: 0x157DE, offset: 0x458F1, size: 0x8, addend: 0x0, symName: __ZNSt3__16vectorINS_12basic_stringIcNS_11char_traitsIcEENS_9allocatorIcEEEENS4_IS6_EEE26__swap_out_circular_bufferERNS_14__split_bufferIS6_RS7_EE, symObjAddr: 0x14A34, symBinAddr: 0x10001F6E4, symSize: 0x110 }
  - { offsetInCU: 0x166EF, offset: 0x46802, size: 0x8, addend: 0x0, symName: __Z7isspacei, symObjAddr: 0x390, symBinAddr: 0x10000D97C, symSize: 0x28 }
  - { offsetInCU: 0x17E7B, offset: 0x47F8E, size: 0x8, addend: 0x0, symName: __Z4trimRKNSt3__112basic_stringIcNS_11char_traitsIcEENS_9allocatorIcEEEE, symObjAddr: 0x0, symBinAddr: 0x10000D5EC, symSize: 0x2A8 }
  - { offsetInCU: 0x17EC5, offset: 0x47FD8, size: 0x8, addend: 0x0, symName: __ZNSt3__112basic_stringIcNS_11char_traitsIcEENS_9allocatorIcEEE5beginB8ue170006Ev, symObjAddr: 0x2A8, symBinAddr: 0x10000D894, symSize: 0x60 }
  - { offsetInCU: 0x17EE9, offset: 0x47FFC, size: 0x8, addend: 0x0, symName: __ZNSt3__112basic_stringIcNS_11char_traitsIcEENS_9allocatorIcEEE3endB8ue170006Ev, symObjAddr: 0x33C, symBinAddr: 0x10000D928, symSize: 0x54 }
  - { offsetInCU: 0x17F0D, offset: 0x48020, size: 0x8, addend: 0x0, symName: __ZNKSt3__111__wrap_iterIPcEdeB8ue170006Ev, symObjAddr: 0x3B8, symBinAddr: 0x10000D9A4, symSize: 0x18 }
  - { offsetInCU: 0x17F32, offset: 0x48045, size: 0x8, addend: 0x0, symName: __ZNSt3__111__wrap_iterIPcEppB8ue170006Ev, symObjAddr: 0x3D0, symBinAddr: 0x10000D9BC, symSize: 0x20 }
  - { offsetInCU: 0x17F57, offset: 0x4806A, size: 0x8, addend: 0x0, symName: __ZNSt3__112basic_stringIcNS_11char_traitsIcEENS_9allocatorIcEEE5eraseB8ue170006ENS_11__wrap_iterIPKcEES9_, symObjAddr: 0x3F0, symBinAddr: 0x10000D9DC, symSize: 0x98 }
  - { offsetInCU: 0x17FC6, offset: 0x480D9, size: 0x8, addend: 0x0, symName: __ZNSt3__111__wrap_iterIPKcEC1B8ue170006IPcEERKNS0_IT_EEPNS_9enable_ifIXsr14is_convertibleIS6_S2_EE5valueEvE4typeE, symObjAddr: 0x488, symBinAddr: 0x10000DA74, symSize: 0x3C }
  - { offsetInCU: 0x18011, offset: 0x48124, size: 0x8, addend: 0x0, symName: __ZNKSt3__111__wrap_iterIPcEmiB8ue170006El, symObjAddr: 0x4C4, symBinAddr: 0x10000DAB0, symSize: 0x3C }
  - { offsetInCU: 0x18043, offset: 0x48156, size: 0x8, addend: 0x0, symName: __ZNSt3__111__wrap_iterIPcEmmB8ue170006Ei, symObjAddr: 0x500, symBinAddr: 0x10000DAEC, symSize: 0x34 }
  - { offsetInCU: 0x18080, offset: 0x48193, size: 0x8, addend: 0x0, symName: __ZNKSt3__111__wrap_iterIPcEplB8ue170006El, symObjAddr: 0x534, symBinAddr: 0x10000DB20, symSize: 0x3C }
  - { offsetInCU: 0x180BF, offset: 0x481D2, size: 0x8, addend: 0x0, symName: __Z19ft_split_whitespaceRKNSt3__112basic_stringIcNS_11char_traitsIcEENS_9allocatorIcEEEE, symObjAddr: 0x57C, symBinAddr: 0x10000DB5C, symSize: 0x170 }
  - { offsetInCU: 0x181E7, offset: 0x482FA, size: 0x8, addend: 0x0, symName: __ZNSt3__119basic_istringstreamIcNS_11char_traitsIcEENS_9allocatorIcEEEC1B8ue170006ERKNS_12basic_stringIcS2_S4_EEj, symObjAddr: 0x718, symBinAddr: 0x10000DCCC, symSize: 0x108 }
  - { offsetInCU: 0x1822E, offset: 0x48341, size: 0x8, addend: 0x0, symName: __ZNKSt3__19basic_iosIcNS_11char_traitsIcEEEcvPvB8ue170006Ev, symObjAddr: 0xB70, symBinAddr: 0x10000E0F8, symSize: 0x4C }
  - { offsetInCU: 0x18252, offset: 0x48365, size: 0x8, addend: 0x0, symName: __ZNSt3__16vectorINS_12basic_stringIcNS_11char_traitsIcEENS_9allocatorIcEEEENS4_IS6_EEE9push_backB8ue170006ERKS6_, symObjAddr: 0xBBC, symBinAddr: 0x10000E144, symSize: 0x6C }
  - { offsetInCU: 0x1828D, offset: 0x483A0, size: 0x8, addend: 0x0, symName: __ZNSt3__119basic_istringstreamIcNS_11char_traitsIcEENS_9allocatorIcEEED1Ev, symObjAddr: 0xC28, symBinAddr: 0x10000E1B0, symSize: 0x70 }
  - { offsetInCU: 0x182B8, offset: 0x483CB, size: 0x8, addend: 0x0, symName: __Z8ft_splitRKNSt3__112basic_stringIcNS_11char_traitsIcEENS_9allocatorIcEEEEc, symObjAddr: 0xCC4, symBinAddr: 0x10000E220, symSize: 0x178 }
  - { offsetInCU: 0x1831E, offset: 0x48431, size: 0x8, addend: 0x0, symName: __Z10first_wordRKNSt3__112basic_stringIcNS_11char_traitsIcEENS_9allocatorIcEEEE, symObjAddr: 0x1070, symBinAddr: 0x10000E5CC, symSize: 0xF8 }
  - { offsetInCU: 0x18368, offset: 0x4847B, size: 0x8, addend: 0x0, symName: __ZN6Server20command_quit_parsingERKNSt3__112basic_stringIcNS0_11char_traitsIcEENS0_9allocatorIcEEEER6Client, symObjAddr: 0x1168, symBinAddr: 0x10000E6C4, symSize: 0x88 }
  - { offsetInCU: 0x183AA, offset: 0x484BD, size: 0x8, addend: 0x0, symName: __Z9validChanNSt3__112basic_stringIcNS_11char_traitsIcEENS_9allocatorIcEEEE, symObjAddr: 0x11F0, symBinAddr: 0x10000E74C, symSize: 0xF8 }
  - { offsetInCU: 0x183D8, offset: 0x484EB, size: 0x8, addend: 0x0, symName: __ZNKSt3__112basic_stringIcNS_11char_traitsIcEENS_9allocatorIcEEE4findB8ue170006EPKcm, symObjAddr: 0x12E8, symBinAddr: 0x10000E844, symSize: 0x74 }
  - { offsetInCU: 0x1841D, offset: 0x48530, size: 0x8, addend: 0x0, symName: __ZN6Server20command_join_parsingERKNSt3__112basic_stringIcNS0_11char_traitsIcEENS0_9allocatorIcEEEER6Client, symObjAddr: 0x135C, symBinAddr: 0x10000E8B8, symSize: 0x604 }
  - { offsetInCU: 0x18630, offset: 0x48743, size: 0x8, addend: 0x0, symName: __ZNSt3__14listINS_12basic_stringIcNS_11char_traitsIcEENS_9allocatorIcEEEENS4_IS6_EEEC1B8ue170006Ev, symObjAddr: 0x1960, symBinAddr: 0x10000EEBC, symSize: 0x2C }
  - { offsetInCU: 0x1867C, offset: 0x4878F, size: 0x8, addend: 0x0, symName: __ZNSt3__118basic_stringstreamIcNS_11char_traitsIcEENS_9allocatorIcEEEC1B8ue170006ERKNS_12basic_stringIcS2_S4_EEj, symObjAddr: 0x198C, symBinAddr: 0x10000EEE8, symSize: 0x11C }
  - { offsetInCU: 0x186C3, offset: 0x487D6, size: 0x8, addend: 0x0, symName: __ZNSt3__114__map_iteratorINS_15__tree_iteratorINS_12__value_typeINS_12basic_stringIcNS_11char_traitsIcEENS_9allocatorIcEEEE7ChannelEEPNS_11__tree_nodeISA_PvEElEEEC1B8ue170006Ev, symObjAddr: 0x1AA8, symBinAddr: 0x10000F004, symSize: 0x2C }
  - { offsetInCU: 0x186EC, offset: 0x487FF, size: 0x8, addend: 0x0, symName: __ZNKSt3__19basic_iosIcNS_11char_traitsIcEEE3eofB8ue170006Ev, symObjAddr: 0x1AD4, symBinAddr: 0x10000F030, symSize: 0x28 }
  - { offsetInCU: 0x18710, offset: 0x48823, size: 0x8, addend: 0x0, symName: __ZNSt3__14listINS_12basic_stringIcNS_11char_traitsIcEENS_9allocatorIcEEEENS4_IS6_EEE9push_backERKS6_, symObjAddr: 0x1AFC, symBinAddr: 0x10000F058, symSize: 0xFC }
  - { offsetInCU: 0x18766, offset: 0x48879, size: 0x8, addend: 0x0, symName: __ZNKSt3__112basic_stringIcNS_11char_traitsIcEENS_9allocatorIcEEEixB8ue170006Em, symObjAddr: 0x1C4C, symBinAddr: 0x10000F154, symSize: 0x30 }
  - { offsetInCU: 0x18799, offset: 0x488AC, size: 0x8, addend: 0x0, symName: __ZNKSt3__14listINS_12basic_stringIcNS_11char_traitsIcEENS_9allocatorIcEEEENS4_IS6_EEE5emptyB8ue170006Ev, symObjAddr: 0x1C7C, symBinAddr: 0x10000F184, symSize: 0x28 }
  - { offsetInCU: 0x187BD, offset: 0x488D0, size: 0x8, addend: 0x0, symName: __ZNSt3__14listINS_12basic_stringIcNS_11char_traitsIcEENS_9allocatorIcEEEENS4_IS6_EEE4backB8ue170006Ev, symObjAddr: 0x1CA4, symBinAddr: 0x10000F1AC, symSize: 0x2C }
  - { offsetInCU: 0x187E1, offset: 0x488F4, size: 0x8, addend: 0x0, symName: __ZNSt3__14listINS_12basic_stringIcNS_11char_traitsIcEENS_9allocatorIcEEEENS4_IS6_EEE8pop_backEv, symObjAddr: 0x1CD0, symBinAddr: 0x10000F1D8, symSize: 0x84 }
  - { offsetInCU: 0x18838, offset: 0x4894B, size: 0x8, addend: 0x0, symName: __ZNSt3__13mapINS_12basic_stringIcNS_11char_traitsIcEENS_9allocatorIcEEEE7ChannelNS_4lessIS6_EENS4_INS_4pairIKS6_S7_EEEEE4findB8ue170006ERSB_, symObjAddr: 0x1D54, symBinAddr: 0x10000F25C, symSize: 0x40 }
  - { offsetInCU: 0x1886B, offset: 0x4897E, size: 0x8, addend: 0x0, symName: __ZNSt3__13mapINS_12basic_stringIcNS_11char_traitsIcEENS_9allocatorIcEEEE7ChannelNS_4lessIS6_EENS4_INS_4pairIKS6_S7_EEEEEixERSB_, symObjAddr: 0x1DFC, symBinAddr: 0x10000F2CC, symSize: 0xC8 }
  - { offsetInCU: 0x188EC, offset: 0x489FF, size: 0x8, addend: 0x0, symName: __ZN7ChannelaSERKS_, symObjAddr: 0x1EC4, symBinAddr: 0x10000F394, symSize: 0xC0 }
  - { offsetInCU: 0x1891C, offset: 0x48A2F, size: 0x8, addend: 0x0, symName: __ZNKSt3__112basic_stringIcNS_11char_traitsIcEENS_9allocatorIcEEE5emptyB8ue170006Ev, symObjAddr: 0x1F84, symBinAddr: 0x10000F454, symSize: 0x30 }
  - { offsetInCU: 0x1894A, offset: 0x48A5D, size: 0x8, addend: 0x0, symName: __ZNSt3__14listINS_12basic_stringIcNS_11char_traitsIcEENS_9allocatorIcEEEENS4_IS6_EEED1Ev, symObjAddr: 0x22A8, symBinAddr: 0x10000F484, symSize: 0x2C }
  - { offsetInCU: 0x18975, offset: 0x48A88, size: 0x8, addend: 0x0, symName: __Z19ft_strjoin_iteratorRNSt3__111__wrap_iterIPNS_12basic_stringIcNS_11char_traitsIcEENS_9allocatorIcEEEEEERNS_6vectorIS6_NS4_IS6_EEEE, symObjAddr: 0x22D4, symBinAddr: 0x10000F4B0, symSize: 0x11C }
  - { offsetInCU: 0x189FE, offset: 0x48B11, size: 0x8, addend: 0x0, symName: __ZNSt3__119basic_ostringstreamIcNS_11char_traitsIcEENS_9allocatorIcEEEC1B8ue170006Ev, symObjAddr: 0x23F0, symBinAddr: 0x10000F5CC, symSize: 0xF8 }
  - { offsetInCU: 0x18A27, offset: 0x48B3A, size: 0x8, addend: 0x0, symName: __ZNSt3__16vectorINS_12basic_stringIcNS_11char_traitsIcEENS_9allocatorIcEEEENS4_IS6_EEE3endB8ue170006Ev, symObjAddr: 0x251C, symBinAddr: 0x10000F6F8, symSize: 0x30 }
  - { offsetInCU: 0x18A4E, offset: 0x48B61, size: 0x8, addend: 0x0, symName: __ZNKSt3__111__wrap_iterIPNS_12basic_stringIcNS_11char_traitsIcEENS_9allocatorIcEEEEEdeB8ue170006Ev, symObjAddr: 0x25E0, symBinAddr: 0x10000F728, symSize: 0x18 }
  - { offsetInCU: 0x18A73, offset: 0x48B86, size: 0x8, addend: 0x0, symName: __ZNSt3__111__wrap_iterIPNS_12basic_stringIcNS_11char_traitsIcEENS_9allocatorIcEEEEEppB8ue170006Ei, symObjAddr: 0x25F8, symBinAddr: 0x10000F740, symSize: 0x34 }
  - { offsetInCU: 0x18AB0, offset: 0x48BC3, size: 0x8, addend: 0x0, symName: __ZNKSt3__119basic_ostringstreamIcNS_11char_traitsIcEENS_9allocatorIcEEE3strB8ue170006Ev, symObjAddr: 0x262C, symBinAddr: 0x10000F774, symSize: 0x30 }
  - { offsetInCU: 0x18AD9, offset: 0x48BEC, size: 0x8, addend: 0x0, symName: __ZNSt3__119basic_ostringstreamIcNS_11char_traitsIcEENS_9allocatorIcEEED1Ev, symObjAddr: 0x265C, symBinAddr: 0x10000F7A4, symSize: 0x70 }
  - { offsetInCU: 0x18B05, offset: 0x48C18, size: 0x8, addend: 0x0, symName: __ZN6Server20command_kick_parsingERKNSt3__112basic_stringIcNS0_11char_traitsIcEENS0_9allocatorIcEEEER6Client, symObjAddr: 0x26CC, symBinAddr: 0x10000F814, symSize: 0x9CC }
  - { offsetInCU: 0x18BB0, offset: 0x48CC3, size: 0x8, addend: 0x0, symName: __ZNSt3__111__wrap_iterIPNS_12basic_stringIcNS_11char_traitsIcEENS_9allocatorIcEEEEEC1B8ue170006Ev, symObjAddr: 0x3098, symBinAddr: 0x1000101E0, symSize: 0x2C }
  - { offsetInCU: 0x18BD9, offset: 0x48CEC, size: 0x8, addend: 0x0, symName: __ZNSt3__114__map_iteratorINS_15__tree_iteratorINS_12__value_typeINS_12basic_stringIcNS_11char_traitsIcEENS_9allocatorIcEEEE6ClientEEPNS_11__tree_nodeISA_PvEElEEEC1B8ue170006Ev, symObjAddr: 0x30C4, symBinAddr: 0x10001020C, symSize: 0x2C }
  - { offsetInCU: 0x18C02, offset: 0x48D15, size: 0x8, addend: 0x0, symName: __ZNSt3__16vectorINS_12basic_stringIcNS_11char_traitsIcEENS_9allocatorIcEEEENS4_IS6_EEE5beginB8ue170006Ev, symObjAddr: 0x3118, symBinAddr: 0x100010238, symSize: 0x30 }
  - { offsetInCU: 0x18C29, offset: 0x48D3C, size: 0x8, addend: 0x0, symName: __ZNSt3__111__wrap_iterIPNS_12basic_stringIcNS_11char_traitsIcEENS_9allocatorIcEEEEEppB8ue170006Ev, symObjAddr: 0x3148, symBinAddr: 0x100010268, symSize: 0x20 }
  - { offsetInCU: 0x18C4E, offset: 0x48D61, size: 0x8, addend: 0x0, symName: __ZN6Server22command_invite_parsingERKNSt3__112basic_stringIcNS0_11char_traitsIcEENS0_9allocatorIcEEEER6Client, symObjAddr: 0x32B8, symBinAddr: 0x1000102BC, symSize: 0xF28 }
  - { offsetInCU: 0x18CEA, offset: 0x48DFD, size: 0x8, addend: 0x0, symName: __ZNSt3__16vectorINS_12basic_stringIcNS_11char_traitsIcEENS_9allocatorIcEEEENS4_IS6_EEEixB8ue170006Em, symObjAddr: 0x41E0, symBinAddr: 0x1000111E4, symSize: 0x2C }
  - { offsetInCU: 0x18D1F, offset: 0x48E32, size: 0x8, addend: 0x0, symName: __Z10check_modeNSt3__112basic_stringIcNS_11char_traitsIcEENS_9allocatorIcEEEE, symObjAddr: 0x4274, symBinAddr: 0x100011240, symSize: 0x1F4 }
  - { offsetInCU: 0x18D4D, offset: 0x48E60, size: 0x8, addend: 0x0, symName: __ZN6Server20command_mode_parsingERKNSt3__112basic_stringIcNS0_11char_traitsIcEENS0_9allocatorIcEEEER6Client, symObjAddr: 0x4528, symBinAddr: 0x100011434, symSize: 0x19C4 }
  - { offsetInCU: 0x18E2D, offset: 0x48F40, size: 0x8, addend: 0x0, symName: __Z12handle_irssiR6ClientNSt3__16vectorINS1_12basic_stringIcNS1_11char_traitsIcEENS1_9allocatorIcEEEENS6_IS8_EEEE, symObjAddr: 0x5F10, symBinAddr: 0x100012DF8, symSize: 0xD9C }
  - { offsetInCU: 0x18EBD, offset: 0x48FD0, size: 0x8, addend: 0x0, symName: __ZNKSt3__16vectorINS_12basic_stringIcNS_11char_traitsIcEENS_9allocatorIcEEEENS4_IS6_EEE5emptyB8ue170006Ev, symObjAddr: 0x6CAC, symBinAddr: 0x100013B94, symSize: 0x28 }
  - { offsetInCU: 0x18EE1, offset: 0x48FF4, size: 0x8, addend: 0x0, symName: __Z9handle_ncRKNSt3__112basic_stringIcNS_11char_traitsIcEENS_9allocatorIcEEEER6Client, symObjAddr: 0x6CD4, symBinAddr: 0x100013BBC, symSize: 0x380 }
  - { offsetInCU: 0x18F2B, offset: 0x4903E, size: 0x8, addend: 0x0, symName: __ZN6Server20command_user_parsingERKNSt3__112basic_stringIcNS0_11char_traitsIcEENS0_9allocatorIcEEEER6Client, symObjAddr: 0x7054, symBinAddr: 0x100013F3C, symSize: 0x3F0 }
  - { offsetInCU: 0x18F90, offset: 0x490A3, size: 0x8, addend: 0x0, symName: __ZNSt3__16vectorINS_12basic_stringIcNS_11char_traitsIcEENS_9allocatorIcEEEENS4_IS6_EEEC1ERKS8_, symObjAddr: 0x74A8, symBinAddr: 0x10001432C, symSize: 0x34 }
  - { offsetInCU: 0x18FCA, offset: 0x490DD, size: 0x8, addend: 0x0, symName: __ZN6Server21command_topic_parsingERKNSt3__112basic_stringIcNS0_11char_traitsIcEENS0_9allocatorIcEEEER6Client, symObjAddr: 0x74DC, symBinAddr: 0x100014360, symSize: 0x19F0 }
  - { offsetInCU: 0x19037, offset: 0x4914A, size: 0x8, addend: 0x0, symName: __ZN6Server20command_nick_parsingERKNSt3__112basic_stringIcNS0_11char_traitsIcEENS0_9allocatorIcEEEER6Client, symObjAddr: 0x8ECC, symBinAddr: 0x100015D50, symSize: 0x14A0 }
  - { offsetInCU: 0x190BA, offset: 0x491CD, size: 0x8, addend: 0x0, symName: __Z6strchrB8ue170006Ua9enable_ifIXLb1EEEPKci, symObjAddr: 0xA36C, symBinAddr: 0x1000171F0, symSize: 0x2C }
  - { offsetInCU: 0x190F5, offset: 0x49208, size: 0x8, addend: 0x0, symName: __ZNKSt3__114__map_iteratorINS_15__tree_iteratorINS_12__value_typeINS_12basic_stringIcNS_11char_traitsIcEENS_9allocatorIcEEEE7ChannelEEPNS_11__tree_nodeISA_PvEElEEEdeB8ue170006Ev, symObjAddr: 0xA4F4, symBinAddr: 0x10001721C, symSize: 0x28 }
  - { offsetInCU: 0x19173, offset: 0x49286, size: 0x8, addend: 0x0, symName: __ZN6Server20command_pass_parsingERKNSt3__112basic_stringIcNS0_11char_traitsIcEENS0_9allocatorIcEEEER6Client, symObjAddr: 0xA548, symBinAddr: 0x100017244, symSize: 0x6EC }
  - { offsetInCU: 0x19222, offset: 0x49335, size: 0x8, addend: 0x0, symName: __ZN6Server19command_cap_parsingERKNSt3__112basic_stringIcNS0_11char_traitsIcEENS0_9allocatorIcEEEER6Client, symObjAddr: 0xAC34, symBinAddr: 0x100017930, symSize: 0x158 }
  - { offsetInCU: 0x19268, offset: 0x4937B, size: 0x8, addend: 0x0, symName: __ZN6Server20command_ping_parsingERKNSt3__112basic_stringIcNS0_11char_traitsIcEENS0_9allocatorIcEEEER6Client, symObjAddr: 0xAD8C, symBinAddr: 0x100017A88, symSize: 0x1F4 }
  - { offsetInCU: 0x192BE, offset: 0x493D1, size: 0x8, addend: 0x0, symName: __ZNKSt3__112basic_stringIcNS_11char_traitsIcEENS_9allocatorIcEEE6substrB8ue170006Emm, symObjAddr: 0xAF80, symBinAddr: 0x100017C7C, symSize: 0x68 }
  - { offsetInCU: 0x19300, offset: 0x49413, size: 0x8, addend: 0x0, symName: __ZN6Server20command_priv_parsingERKNSt3__112basic_stringIcNS0_11char_traitsIcEENS0_9allocatorIcEEEER6Client, symObjAddr: 0xAFE8, symBinAddr: 0x100017CE4, symSize: 0x1210 }
  - { offsetInCU: 0x1938C, offset: 0x4949F, size: 0x8, addend: 0x0, symName: __ZN6Server20command_motd_parsingERKNSt3__112basic_stringIcNS0_11char_traitsIcEENS0_9allocatorIcEEEER6Client, symObjAddr: 0xC21C, symBinAddr: 0x100018EF4, symSize: 0x840 }
  - { offsetInCU: 0x19483, offset: 0x49596, size: 0x8, addend: 0x0, symName: __ZNSt3__113basic_fstreamIcNS_11char_traitsIcEEEC1Ev, symObjAddr: 0xCA5C, symBinAddr: 0x100019734, symSize: 0x10C }
  - { offsetInCU: 0x194AE, offset: 0x495C1, size: 0x8, addend: 0x0, symName: __ZNSt3__113basic_fstreamIcNS_11char_traitsIcEEE4openEPKcj, symObjAddr: 0xCB68, symBinAddr: 0x100019840, symSize: 0x84 }
  - { offsetInCU: 0x194F3, offset: 0x49606, size: 0x8, addend: 0x0, symName: __ZNKSt3__113basic_fstreamIcNS_11char_traitsIcEEE7is_openEv, symObjAddr: 0xCBEC, symBinAddr: 0x1000198C4, symSize: 0x2C }
  - { offsetInCU: 0x1951F, offset: 0x49632, size: 0x8, addend: 0x0, symName: __ZNSt3__113basic_fstreamIcNS_11char_traitsIcEEED1Ev, symObjAddr: 0xCC74, symBinAddr: 0x10001994C, symSize: 0x70 }
  - { offsetInCU: 0x19549, offset: 0x4965C, size: 0x8, addend: 0x0, symName: __ZN6Server32parse_and_execute_client_commandERKNSt3__112basic_stringIcNS0_11char_traitsIcEENS0_9allocatorIcEEEER6Client, symObjAddr: 0xCCE4, symBinAddr: 0x1000199BC, symSize: 0xECC }
  - { offsetInCU: 0x195FA, offset: 0x4970D, size: 0x8, addend: 0x0, symName: __ZNSt3__13mapINS_12basic_stringIcNS_11char_traitsIcEENS_9allocatorIcEEEEM6ServerFvRKS6_R6ClientENS_4lessIS6_EENS4_INS_4pairIS8_SD_EEEEEC1B8ue170006Ev, symObjAddr: 0xDBB0, symBinAddr: 0x10001A888, symSize: 0x2C }
  - { offsetInCU: 0x19623, offset: 0x49736, size: 0x8, addend: 0x0, symName: __ZNSt3__13mapINS_12basic_stringIcNS_11char_traitsIcEENS_9allocatorIcEEEEM6ServerFvRKS6_R6ClientENS_4lessIS6_EENS4_INS_4pairIS8_SD_EEEEE6insertB8ue170006ERKSH_, symObjAddr: 0xDBDC, symBinAddr: 0x10001A8B4, symSize: 0x4C }
  - { offsetInCU: 0x19679, offset: 0x4978C, size: 0x8, addend: 0x0, symName: __ZNSt3__14pairIKNS_12basic_stringIcNS_11char_traitsIcEENS_9allocatorIcEEEEM6ServerFvRS7_R6ClientEEC1B8ue170006IPKcSD_EERKNS0_IT_T0_EE, symObjAddr: 0xDC68, symBinAddr: 0x10001A940, symSize: 0x34 }
  - { offsetInCU: 0x196C2, offset: 0x497D5, size: 0x8, addend: 0x0, symName: __ZNSt3__14pairIKNS_12basic_stringIcNS_11char_traitsIcEENS_9allocatorIcEEEEM6ServerFvRS7_R6ClientEED1Ev, symObjAddr: 0xDC9C, symBinAddr: 0x10001A974, symSize: 0x2C }
  - { offsetInCU: 0x196EC, offset: 0x497FF, size: 0x8, addend: 0x0, symName: __ZNSt3__13mapINS_12basic_stringIcNS_11char_traitsIcEENS_9allocatorIcEEEEM6ServerFvRKS6_R6ClientENS_4lessIS6_EENS4_INS_4pairIS8_SD_EEEEE4findB8ue170006ES9_, symObjAddr: 0xDDF8, symBinAddr: 0x10001AAD0, symSize: 0x40 }
  - { offsetInCU: 0x1971F, offset: 0x49832, size: 0x8, addend: 0x0, symName: __ZNSt3__13mapINS_12basic_stringIcNS_11char_traitsIcEENS_9allocatorIcEEEEM6ServerFvRKS6_R6ClientENS_4lessIS6_EENS4_INS_4pairIS8_SD_EEEEE3endB8ue170006Ev, symObjAddr: 0xDE38, symBinAddr: 0x10001AB10, symSize: 0x38 }
  - { offsetInCU: 0x19743, offset: 0x49856, size: 0x8, addend: 0x0, symName: __ZNSt3__13mapINS_12basic_stringIcNS_11char_traitsIcEENS_9allocatorIcEEEEM6ServerFvRKS6_R6ClientENS_4lessIS6_EENS4_INS_4pairIS8_SD_EEEEEixES9_, symObjAddr: 0xDE70, symBinAddr: 0x10001AB48, symSize: 0xC8 }
  - { offsetInCU: 0x197BF, offset: 0x498D2, size: 0x8, addend: 0x0, symName: __ZNSt3__13mapINS_12basic_stringIcNS_11char_traitsIcEENS_9allocatorIcEEEEM6ServerFvRKS6_R6ClientENS_4lessIS6_EENS4_INS_4pairIS8_SD_EEEEED1B8ue170006Ev, symObjAddr: 0xDF38, symBinAddr: 0x10001AC10, symSize: 0x2C }
  - { offsetInCU: 0x197E8, offset: 0x498FB, size: 0x8, addend: 0x0, symName: __ZNSt3__119basic_istringstreamIcNS_11char_traitsIcEENS_9allocatorIcEEED2Ev, symObjAddr: 0xE014, symBinAddr: 0x10001AC3C, symSize: 0x9C }
  - { offsetInCU: 0x19820, offset: 0x49933, size: 0x8, addend: 0x0, symName: __ZTv0_n24_NSt3__119basic_istringstreamIcNS_11char_traitsIcEENS_9allocatorIcEEED1Ev, symObjAddr: 0xE0B0, symBinAddr: 0x10001ACD8, symSize: 0x28 }
  - { offsetInCU: 0x1983C, offset: 0x4994F, size: 0x8, addend: 0x0, symName: __ZNSt3__16vectorIiNS_9allocatorIiEEEaSB8ue170006ERKS3_, symObjAddr: 0xE17C, symBinAddr: 0x10001AD00, symSize: 0x68 }
  - { offsetInCU: 0x19872, offset: 0x49985, size: 0x8, addend: 0x0, symName: __ZNSt3__13mapINS_12basic_stringIcNS_11char_traitsIcEENS_9allocatorIcEEEEP6ClientNS_4lessIS6_EENS4_INS_4pairIKS6_S8_EEEEEaSB8ue170006ERKSF_, symObjAddr: 0xE1E4, symBinAddr: 0x10001AD68, symSize: 0x94 }
  - { offsetInCU: 0x198A5, offset: 0x499B8, size: 0x8, addend: 0x0, symName: __ZNSt3__16vectorIiNS_9allocatorIiEEE19__copy_assign_allocB8ue170006ERKS3_, symObjAddr: 0xE278, symBinAddr: 0x10001ADFC, symSize: 0x2C }
  - { offsetInCU: 0x198D8, offset: 0x499EB, size: 0x8, addend: 0x0, symName: __ZNSt3__16vectorIiNS_9allocatorIiEEE6assignIPiLi0EEEvT_S6_, symObjAddr: 0xE2A4, symBinAddr: 0x10001AE28, symSize: 0x5C }
  - { offsetInCU: 0x1992D, offset: 0x49A40, size: 0x8, addend: 0x0, symName: __ZNSt3__16vectorIiNS_9allocatorIiEEE19__copy_assign_allocB8ue170006ERKS3_NS_17integral_constantIbLb0EEE, symObjAddr: 0xE300, symBinAddr: 0x10001AE84, symSize: 0x14 }
  - { offsetInCU: 0x1996A, offset: 0x49A7D, size: 0x8, addend: 0x0, symName: __ZNSt3__16vectorIiNS_9allocatorIiEEE18__assign_with_sizeB8ue170006IPiS5_EEvT_T0_l, symObjAddr: 0xE314, symBinAddr: 0x10001AE98, symSize: 0x164 }
  - { offsetInCU: 0x19A1C, offset: 0x49B2F, size: 0x8, addend: 0x0, symName: __ZNKSt3__16vectorIiNS_9allocatorIiEEE8capacityB8ue170006Ev, symObjAddr: 0xE4A4, symBinAddr: 0x10001B028, symSize: 0x40 }
  - { offsetInCU: 0x19A40, offset: 0x49B53, size: 0x8, addend: 0x0, symName: __ZNKSt3__16vectorIiNS_9allocatorIiEEE4sizeB8ue170006Ev, symObjAddr: 0xE4E4, symBinAddr: 0x10001B068, symSize: 0x28 }
  - { offsetInCU: 0x19A65, offset: 0x49B78, size: 0x8, addend: 0x0, symName: __ZNSt3__16vectorIiNS_9allocatorIiEEE18__construct_at_endIPiS5_EEvT_T0_m, symObjAddr: 0xE580, symBinAddr: 0x10001B104, symSize: 0x94 }
  - { offsetInCU: 0x19ADB, offset: 0x49BEE, size: 0x8, addend: 0x0, symName: __ZNSt3__16vectorIiNS_9allocatorIiEEE17__destruct_at_endB8ue170006EPi, symObjAddr: 0xE658, symBinAddr: 0x10001B1DC, symSize: 0x4C }
  - { offsetInCU: 0x19B1E, offset: 0x49C31, size: 0x8, addend: 0x0, symName: __ZNSt3__16vectorIiNS_9allocatorIiEEE13__vdeallocateEv, symObjAddr: 0xE6A4, symBinAddr: 0x10001B228, symSize: 0x94 }
  - { offsetInCU: 0x19B45, offset: 0x49C58, size: 0x8, addend: 0x0, symName: __ZNSt3__16vectorIiNS_9allocatorIiEEE11__vallocateB8ue170006Em, symObjAddr: 0xE738, symBinAddr: 0x10001B2BC, symSize: 0xAC }
  - { offsetInCU: 0x19B88, offset: 0x49C9B, size: 0x8, addend: 0x0, symName: __ZNKSt3__16vectorIiNS_9allocatorIiEEE11__recommendB8ue170006Em, symObjAddr: 0xE7E4, symBinAddr: 0x10001B368, symSize: 0xB4 }
  - { offsetInCU: 0x19BDE, offset: 0x49CF1, size: 0x8, addend: 0x0, symName: __ZNKSt3__16vectorIiNS_9allocatorIiEEE9__end_capB8ue170006Ev, symObjAddr: 0xE898, symBinAddr: 0x10001B41C, symSize: 0x28 }
  - { offsetInCU: 0x19C02, offset: 0x49D15, size: 0x8, addend: 0x0, symName: __ZNKSt3__117__compressed_pairIPiNS_9allocatorIiEEE5firstB8ue170006Ev, symObjAddr: 0xE8C0, symBinAddr: 0x10001B444, symSize: 0x24 }
  - { offsetInCU: 0x19C26, offset: 0x49D39, size: 0x8, addend: 0x0, symName: __ZNKSt3__122__compressed_pair_elemIPiLi0ELb0EE5__getB8ue170006Ev, symObjAddr: 0xE8E4, symBinAddr: 0x10001B468, symSize: 0x14 }
  - { offsetInCU: 0x19C64, offset: 0x49D77, size: 0x8, addend: 0x0, symName: __ZNSt3__16vectorIiNS_9allocatorIiEEE21_ConstructTransactionC1B8ue170006ERS3_m, symObjAddr: 0xE96C, symBinAddr: 0x10001B4F0, symSize: 0x3C }
  - { offsetInCU: 0x19CAB, offset: 0x49DBE, size: 0x8, addend: 0x0, symName: __ZNSt3__16vectorIiNS_9allocatorIiEEE7__allocB8ue170006Ev, symObjAddr: 0xEA28, symBinAddr: 0x10001B5AC, symSize: 0x28 }
  - { offsetInCU: 0x19CCF, offset: 0x49DE2, size: 0x8, addend: 0x0, symName: __ZNSt3__16vectorIiNS_9allocatorIiEEE21_ConstructTransactionD1B8ue170006Ev, symObjAddr: 0xEA50, symBinAddr: 0x10001B5D4, symSize: 0x2C }
  - { offsetInCU: 0x19CF8, offset: 0x49E0B, size: 0x8, addend: 0x0, symName: __ZNSt3__16vectorIiNS_9allocatorIiEEE21_ConstructTransactionC2B8ue170006ERS3_m, symObjAddr: 0xEA7C, symBinAddr: 0x10001B600, symSize: 0x44 }
  - { offsetInCU: 0x19D58, offset: 0x49E6B, size: 0x8, addend: 0x0, symName: __ZNSt3__14pairIPiS1_EC1B8ue170006ERKS1_S4_, symObjAddr: 0xECC8, symBinAddr: 0x10001B84C, symSize: 0x3C }
  - { offsetInCU: 0x19D9D, offset: 0x49EB0, size: 0x8, addend: 0x0, symName: __ZNSt3__14pairIPiS1_EC2B8ue170006ERKS1_S4_, symObjAddr: 0xED04, symBinAddr: 0x10001B888, symSize: 0x34 }
  - { offsetInCU: 0x19DE2, offset: 0x49EF5, size: 0x8, addend: 0x0, symName: __ZNSt3__129_AllocatorDestroyRangeReverseINS_9allocatorIiEEPiEC1B8ue170006ERS2_RS3_S6_, symObjAddr: 0xED84, symBinAddr: 0x10001B908, symSize: 0x44 }
  - { offsetInCU: 0x19E38, offset: 0x49F4B, size: 0x8, addend: 0x0, symName: __ZNSt3__116allocator_traitsINS_9allocatorIiEEE9constructB8ue170006IiJRiEvEEvRS2_PT_DpOT0_, symObjAddr: 0xEDC8, symBinAddr: 0x10001B94C, symSize: 0x34 }
  - { offsetInCU: 0x19E8F, offset: 0x49FA2, size: 0x8, addend: 0x0, symName: __ZNSt3__128__exception_guard_exceptionsINS_29_AllocatorDestroyRangeReverseINS_9allocatorIiEEPiEEE10__completeB8ue170006Ev, symObjAddr: 0xEE10, symBinAddr: 0x10001B994, symSize: 0x1C }
  - { offsetInCU: 0x19EB4, offset: 0x49FC7, size: 0x8, addend: 0x0, symName: __ZNSt3__128__exception_guard_exceptionsINS_29_AllocatorDestroyRangeReverseINS_9allocatorIiEEPiEEED1B8ue170006Ev, symObjAddr: 0xEE2C, symBinAddr: 0x10001B9B0, symSize: 0x2C }
  - { offsetInCU: 0x19EDD, offset: 0x49FF0, size: 0x8, addend: 0x0, symName: __ZNSt3__128__exception_guard_exceptionsINS_29_AllocatorDestroyRangeReverseINS_9allocatorIiEEPiEEEC1B8ue170006ES5_, symObjAddr: 0xEE58, symBinAddr: 0x10001B9DC, symSize: 0x34 }
  - { offsetInCU: 0x19F15, offset: 0x4A028, size: 0x8, addend: 0x0, symName: __ZNSt3__128__exception_guard_exceptionsINS_29_AllocatorDestroyRangeReverseINS_9allocatorIiEEPiEEEC2B8ue170006ES5_, symObjAddr: 0xEE8C, symBinAddr: 0x10001BA10, symSize: 0x30 }
  - { offsetInCU: 0x19F4D, offset: 0x4A060, size: 0x8, addend: 0x0, symName: __ZNSt3__129_AllocatorDestroyRangeReverseINS_9allocatorIiEEPiEC2B8ue170006ERS2_RS3_S6_, symObjAddr: 0xEEBC, symBinAddr: 0x10001BA40, symSize: 0x38 }
  - { offsetInCU: 0x19FA3, offset: 0x4A0B6, size: 0x8, addend: 0x0, symName: __ZNSt3__19allocatorIiE9constructB8ue170006IiJRiEEEvPT_DpOT0_, symObjAddr: 0xEEF4, symBinAddr: 0x10001BA78, symSize: 0x28 }
  - { offsetInCU: 0x19FF8, offset: 0x4A10B, size: 0x8, addend: 0x0, symName: __ZNSt3__128__exception_guard_exceptionsINS_29_AllocatorDestroyRangeReverseINS_9allocatorIiEEPiEEED2B8ue170006Ev, symObjAddr: 0xEF1C, symBinAddr: 0x10001BAA0, symSize: 0x48 }
  - { offsetInCU: 0x1A021, offset: 0x4A134, size: 0x8, addend: 0x0, symName: __ZNKSt3__129_AllocatorDestroyRangeReverseINS_9allocatorIiEEPiEclB8ue170006Ev, symObjAddr: 0xEF64, symBinAddr: 0x10001BAE8, symSize: 0x68 }
  - { offsetInCU: 0x1A045, offset: 0x4A158, size: 0x8, addend: 0x0, symName: __ZNSt3__116reverse_iteratorIPiEC1B8ue170006ES1_, symObjAddr: 0xF03C, symBinAddr: 0x10001BBC0, symSize: 0x34 }
  - { offsetInCU: 0x1A07C, offset: 0x4A18F, size: 0x8, addend: 0x0, symName: __ZNSt3__116allocator_traitsINS_9allocatorIiEEE7destroyB8ue170006IivEEvRS2_PT_, symObjAddr: 0xF0B8, symBinAddr: 0x10001BC3C, symSize: 0x2C }
  - { offsetInCU: 0x1A0B9, offset: 0x4A1CC, size: 0x8, addend: 0x0, symName: __ZNSt3__116reverse_iteratorIPiEppB8ue170006Ev, symObjAddr: 0xF108, symBinAddr: 0x10001BC8C, symSize: 0x20 }
  - { offsetInCU: 0x1A0DE, offset: 0x4A1F1, size: 0x8, addend: 0x0, symName: __ZNKSt3__116reverse_iteratorIPiE4baseB8ue170006Ev, symObjAddr: 0xF128, symBinAddr: 0x10001BCAC, symSize: 0x18 }
  - { offsetInCU: 0x1A103, offset: 0x4A216, size: 0x8, addend: 0x0, symName: __ZNSt3__19allocatorIiE7destroyB8ue170006EPi, symObjAddr: 0xF140, symBinAddr: 0x10001BCC4, symSize: 0x14 }
  - { offsetInCU: 0x1A13B, offset: 0x4A24E, size: 0x8, addend: 0x0, symName: __ZNSt3__119__to_address_helperINS_16reverse_iteratorIPiEEvE6__callB8ue170006ERKS3_, symObjAddr: 0xF154, symBinAddr: 0x10001BCD8, symSize: 0x4C }
  - { offsetInCU: 0x1A15E, offset: 0x4A271, size: 0x8, addend: 0x0, symName: __ZNKSt3__116reverse_iteratorIPiEptB8ue170006Ev, symObjAddr: 0xF1A0, symBinAddr: 0x10001BD24, symSize: 0x24 }
  - { offsetInCU: 0x1A182, offset: 0x4A295, size: 0x8, addend: 0x0, symName: __ZNKSt3__116reverse_iteratorIPiEdeB8ue170006Ev, symObjAddr: 0xF1C4, symBinAddr: 0x10001BD48, symSize: 0x28 }
  - { offsetInCU: 0x1A1B5, offset: 0x4A2C8, size: 0x8, addend: 0x0, symName: __ZNSt3__116reverse_iteratorIPiEC2B8ue170006ES1_, symObjAddr: 0xF1EC, symBinAddr: 0x10001BD70, symSize: 0x28 }
  - { offsetInCU: 0x1A1EC, offset: 0x4A2FF, size: 0x8, addend: 0x0, symName: __ZNSt3__118__unwrap_iter_implIPiLb1EE8__unwrapB8ue170006ES1_, symObjAddr: 0xF214, symBinAddr: 0x10001BD98, symSize: 0x24 }
  - { offsetInCU: 0x1A20F, offset: 0x4A322, size: 0x8, addend: 0x0, symName: __ZNSt3__118__unwrap_iter_implIPiLb1EE8__rewrapB8ue170006ES1_S1_, symObjAddr: 0xF238, symBinAddr: 0x10001BDBC, symSize: 0x50 }
  - { offsetInCU: 0x1A240, offset: 0x4A353, size: 0x8, addend: 0x0, symName: __ZNSt3__117__compressed_pairIPiNS_9allocatorIiEEE6secondB8ue170006Ev, symObjAddr: 0xF288, symBinAddr: 0x10001BE0C, symSize: 0x24 }
  - { offsetInCU: 0x1A264, offset: 0x4A377, size: 0x8, addend: 0x0, symName: __ZNSt3__122__compressed_pair_elemINS_9allocatorIiEELi1ELb1EE5__getB8ue170006Ev, symObjAddr: 0xF2AC, symBinAddr: 0x10001BE30, symSize: 0x14 }
  - { offsetInCU: 0x1A289, offset: 0x4A39C, size: 0x8, addend: 0x0, symName: __ZNSt3__16vectorIiNS_9allocatorIiEEE21_ConstructTransactionD2B8ue170006Ev, symObjAddr: 0xF2C0, symBinAddr: 0x10001BE44, symSize: 0x20 }
  - { offsetInCU: 0x1A2BC, offset: 0x4A3CF, size: 0x8, addend: 0x0, symName: __ZNKSt3__114__copy_trivialclB8ue170006IiiLi0EEENS_4pairIPT_PT0_EES4_S4_S6_, symObjAddr: 0xF3D8, symBinAddr: 0x10001BF5C, symSize: 0x48 }
  - { offsetInCU: 0x1A323, offset: 0x4A436, size: 0x8, addend: 0x0, symName: __ZNSt3__16vectorIiNS_9allocatorIiEEE22__base_destruct_at_endB8ue170006EPi, symObjAddr: 0xF5B0, symBinAddr: 0x10001C128, symSize: 0xA0 }
  - { offsetInCU: 0x1A366, offset: 0x4A479, size: 0x8, addend: 0x0, symName: __ZNKSt3__16vectorIiNS_9allocatorIiEEE17__annotate_shrinkB8ue170006Em, symObjAddr: 0xF650, symBinAddr: 0x10001C1C8, symSize: 0xB4 }
  - { offsetInCU: 0x1A399, offset: 0x4A4AC, size: 0x8, addend: 0x0, symName: __ZNKSt3__16vectorIiNS_9allocatorIiEEE31__annotate_contiguous_containerB8ue170006EPKvS5_S5_S5_, symObjAddr: 0xF704, symBinAddr: 0x10001C27C, symSize: 0x20 }
  - { offsetInCU: 0x1A3EE, offset: 0x4A501, size: 0x8, addend: 0x0, symName: __ZNKSt3__16vectorIiNS_9allocatorIiEEE4dataB8ue170006Ev, symObjAddr: 0xF724, symBinAddr: 0x10001C29C, symSize: 0x28 }
  - { offsetInCU: 0x1A412, offset: 0x4A525, size: 0x8, addend: 0x0, symName: __ZNSt3__16vectorIiNS_9allocatorIiEEE5clearB8ue170006Ev, symObjAddr: 0xF74C, symBinAddr: 0x10001C2C4, symSize: 0x44 }
  - { offsetInCU: 0x1A446, offset: 0x4A559, size: 0x8, addend: 0x0, symName: __ZNKSt3__16vectorIiNS_9allocatorIiEEE17__annotate_deleteB8ue170006Ev, symObjAddr: 0xF790, symBinAddr: 0x10001C308, symSize: 0xB8 }
  - { offsetInCU: 0x1A46A, offset: 0x4A57D, size: 0x8, addend: 0x0, symName: __ZNSt3__116allocator_traitsINS_9allocatorIiEEE10deallocateB8ue170006ERS2_Pim, symObjAddr: 0xF848, symBinAddr: 0x10001C3C0, symSize: 0x34 }
  - { offsetInCU: 0x1A4AC, offset: 0x4A5BF, size: 0x8, addend: 0x0, symName: __ZNSt3__16vectorIiNS_9allocatorIiEEE9__end_capB8ue170006Ev, symObjAddr: 0xF87C, symBinAddr: 0x10001C3F4, symSize: 0x28 }
  - { offsetInCU: 0x1A4D0, offset: 0x4A5E3, size: 0x8, addend: 0x0, symName: __ZNSt3__16vectorIiNS_9allocatorIiEEE7__clearB8ue170006Ev, symObjAddr: 0xF8A4, symBinAddr: 0x10001C41C, symSize: 0x28 }
  - { offsetInCU: 0x1A4F4, offset: 0x4A607, size: 0x8, addend: 0x0, symName: __ZNSt3__19allocatorIiE10deallocateB8ue170006EPim, symObjAddr: 0xF8CC, symBinAddr: 0x10001C444, symSize: 0x70 }
  - { offsetInCU: 0x1A534, offset: 0x4A647, size: 0x8, addend: 0x0, symName: __ZNSt3__117__compressed_pairIPiNS_9allocatorIiEEE5firstB8ue170006Ev, symObjAddr: 0xF9B8, symBinAddr: 0x10001C4B4, symSize: 0x24 }
  - { offsetInCU: 0x1A558, offset: 0x4A66B, size: 0x8, addend: 0x0, symName: __ZNSt3__122__compressed_pair_elemIPiLi0ELb0EE5__getB8ue170006Ev, symObjAddr: 0xF9DC, symBinAddr: 0x10001C4D8, symSize: 0x14 }
  - { offsetInCU: 0x1A57D, offset: 0x4A690, size: 0x8, addend: 0x0, symName: __ZNKSt3__16vectorIiNS_9allocatorIiEEE8max_sizeEv, symObjAddr: 0xF9F0, symBinAddr: 0x10001C4EC, symSize: 0x74 }
  - { offsetInCU: 0x1A5A4, offset: 0x4A6B7, size: 0x8, addend: 0x0, symName: __ZNKSt3__16vectorIiNS_9allocatorIiEEE20__throw_length_errorB8ue170006Ev, symObjAddr: 0xFA64, symBinAddr: 0x10001C560, symSize: 0x1C }
  - { offsetInCU: 0x1A5C8, offset: 0x4A6DB, size: 0x8, addend: 0x0, symName: __ZNKSt3__16vectorIiNS_9allocatorIiEEE14__annotate_newB8ue170006Em, symObjAddr: 0xFAC0, symBinAddr: 0x10001C5BC, symSize: 0xAC }
  - { offsetInCU: 0x1A605, offset: 0x4A718, size: 0x8, addend: 0x0, symName: __ZNSt3__116allocator_traitsINS_9allocatorIiEEE8max_sizeB8ue170006IS2_vEEmRKS2_, symObjAddr: 0xFB98, symBinAddr: 0x10001C668, symSize: 0x24 }
  - { offsetInCU: 0x1A633, offset: 0x4A746, size: 0x8, addend: 0x0, symName: __ZNKSt3__16vectorIiNS_9allocatorIiEEE7__allocB8ue170006Ev, symObjAddr: 0xFBBC, symBinAddr: 0x10001C68C, symSize: 0x28 }
  - { offsetInCU: 0x1A657, offset: 0x4A76A, size: 0x8, addend: 0x0, symName: __ZNSt3__114numeric_limitsIlE3maxB8ue170006Ev, symObjAddr: 0xFBE4, symBinAddr: 0x10001C6B4, symSize: 0x14 }
  - { offsetInCU: 0x1A66B, offset: 0x4A77E, size: 0x8, addend: 0x0, symName: __ZNKSt3__19allocatorIiE8max_sizeB8ue170006Ev, symObjAddr: 0xFC80, symBinAddr: 0x10001C6C8, symSize: 0x14 }
  - { offsetInCU: 0x1A690, offset: 0x4A7A3, size: 0x8, addend: 0x0, symName: __ZNKSt3__117__compressed_pairIPiNS_9allocatorIiEEE6secondB8ue170006Ev, symObjAddr: 0xFC94, symBinAddr: 0x10001C6DC, symSize: 0x24 }
  - { offsetInCU: 0x1A6B4, offset: 0x4A7C7, size: 0x8, addend: 0x0, symName: __ZNKSt3__122__compressed_pair_elemINS_9allocatorIiEELi1ELb1EE5__getB8ue170006Ev, symObjAddr: 0xFCB8, symBinAddr: 0x10001C700, symSize: 0x14 }
  - { offsetInCU: 0x1A6D9, offset: 0x4A7EC, size: 0x8, addend: 0x0, symName: __ZNSt3__123__libcpp_numeric_limitsIlLb1EE3maxB8ue170006Ev, symObjAddr: 0xFCCC, symBinAddr: 0x10001C714, symSize: 0x8 }
  - { offsetInCU: 0x1A6ED, offset: 0x4A800, size: 0x8, addend: 0x0, symName: __ZNSt3__19allocatorIiE8allocateB8ue170006Em, symObjAddr: 0xFDB8, symBinAddr: 0x10001C71C, symSize: 0x84 }
  - { offsetInCU: 0x1A71F, offset: 0x4A832, size: 0x8, addend: 0x0, symName: __ZNSt3__16__treeINS_12__value_typeINS_12basic_stringIcNS_11char_traitsIcEENS_9allocatorIcEEEEP6ClientEENS_19__map_value_compareIS7_SA_NS_4lessIS7_EELb1EEENS5_ISA_EEE5clearEv, symObjAddr: 0xFF64, symBinAddr: 0x10001C848, symSize: 0x74 }
  - { offsetInCU: 0x1A746, offset: 0x4A859, size: 0x8, addend: 0x0, symName: __ZNKSt3__16__treeINS_12__value_typeINS_12basic_stringIcNS_11char_traitsIcEENS_9allocatorIcEEEEP6ClientEENS_19__map_value_compareIS7_SA_NS_4lessIS7_EELb1EEENS5_ISA_EEE10value_compB8ue170006Ev, symObjAddr: 0xFFD8, symBinAddr: 0x10001C8BC, symSize: 0x28 }
  - { offsetInCU: 0x1A76A, offset: 0x4A87D, size: 0x8, addend: 0x0, symName: __ZNSt3__16__treeINS_12__value_typeINS_12basic_stringIcNS_11char_traitsIcEENS_9allocatorIcEEEEP6ClientEENS_19__map_value_compareIS7_SA_NS_4lessIS7_EELb1EEENS5_ISA_EEE10value_compB8ue170006Ev, symObjAddr: 0x10000, symBinAddr: 0x10001C8E4, symSize: 0x28 }
  - { offsetInCU: 0x1A78E, offset: 0x4A8A1, size: 0x8, addend: 0x0, symName: __ZNSt3__16__treeINS_12__value_typeINS_12basic_stringIcNS_11char_traitsIcEENS_9allocatorIcEEEEP6ClientEENS_19__map_value_compareIS7_SA_NS_4lessIS7_EELb1EEENS5_ISA_EEE19__copy_assign_allocB8ue170006ERKSG_, symObjAddr: 0x10028, symBinAddr: 0x10001C90C, symSize: 0x2C }
  - { offsetInCU: 0x1A7C1, offset: 0x4A8D4, size: 0x8, addend: 0x0, symName: __ZNSt3__13mapINS_12basic_stringIcNS_11char_traitsIcEENS_9allocatorIcEEEEP6ClientNS_4lessIS6_EENS4_INS_4pairIKS6_S8_EEEEE6insertB8ue170006INS_20__map_const_iteratorINS_21__tree_const_iteratorINS_12__value_typeIS6_S8_EEPNS_11__tree_nodeISK_PvEElEEEEEEvT_SR_, symObjAddr: 0x10054, symBinAddr: 0x10001C938, symSize: 0x8C }
  - { offsetInCU: 0x1A82A, offset: 0x4A93D, size: 0x8, addend: 0x0, symName: __ZNKSt3__13mapINS_12basic_stringIcNS_11char_traitsIcEENS_9allocatorIcEEEEP6ClientNS_4lessIS6_EENS4_INS_4pairIKS6_S8_EEEEE5beginB8ue170006Ev, symObjAddr: 0x100E0, symBinAddr: 0x10001C9C4, symSize: 0x38 }
  - { offsetInCU: 0x1A84E, offset: 0x4A961, size: 0x8, addend: 0x0, symName: __ZNKSt3__13mapINS_12basic_stringIcNS_11char_traitsIcEENS_9allocatorIcEEEEP6ClientNS_4lessIS6_EENS4_INS_4pairIKS6_S8_EEEEE3endB8ue170006Ev, symObjAddr: 0x10118, symBinAddr: 0x10001C9FC, symSize: 0x38 }
  - { offsetInCU: 0x1A872, offset: 0x4A985, size: 0x8, addend: 0x0, symName: __ZNSt3__16__treeINS_12__value_typeINS_12basic_stringIcNS_11char_traitsIcEENS_9allocatorIcEEEEP6ClientEENS_19__map_value_compareIS7_SA_NS_4lessIS7_EELb1EEENS5_ISA_EEE7destroyEPNS_11__tree_nodeISA_PvEE, symObjAddr: 0x10150, symBinAddr: 0x10001CA34, symSize: 0xC0 }
  - { offsetInCU: 0x1A8C6, offset: 0x4A9D9, size: 0x8, addend: 0x0, symName: __ZNKSt3__16__treeINS_12__value_typeINS_12basic_stringIcNS_11char_traitsIcEENS_9allocatorIcEEEEP6ClientEENS_19__map_value_compareIS7_SA_NS_4lessIS7_EELb1EEENS5_ISA_EEE6__rootB8ue170006Ev, symObjAddr: 0x10210, symBinAddr: 0x10001CAF4, symSize: 0x28 }
  - { offsetInCU: 0x1A8EA, offset: 0x4A9FD, size: 0x8, addend: 0x0, symName: __ZNSt3__16__treeINS_12__value_typeINS_12basic_stringIcNS_11char_traitsIcEENS_9allocatorIcEEEEP6ClientEENS_19__map_value_compareIS7_SA_NS_4lessIS7_EELb1EEENS5_ISA_EEE4sizeB8ue170006Ev, symObjAddr: 0x10238, symBinAddr: 0x10001CB1C, symSize: 0x28 }
  - { offsetInCU: 0x1A90E, offset: 0x4AA21, size: 0x8, addend: 0x0, symName: __ZNSt3__16__treeINS_12__value_typeINS_12basic_stringIcNS_11char_traitsIcEENS_9allocatorIcEEEEP6ClientEENS_19__map_value_compareIS7_SA_NS_4lessIS7_EELb1EEENS5_ISA_EEE10__end_nodeB8ue170006Ev, symObjAddr: 0x10260, symBinAddr: 0x10001CB44, symSize: 0x2C }
  - { offsetInCU: 0x1A932, offset: 0x4AA45, size: 0x8, addend: 0x0, symName: __ZNSt3__16__treeINS_12__value_typeINS_12basic_stringIcNS_11char_traitsIcEENS_9allocatorIcEEEEP6ClientEENS_19__map_value_compareIS7_SA_NS_4lessIS7_EELb1EEENS5_ISA_EEE12__begin_nodeB8ue170006Ev, symObjAddr: 0x1028C, symBinAddr: 0x10001CB70, symSize: 0x14 }
  - { offsetInCU: 0x1A957, offset: 0x4AA6A, size: 0x8, addend: 0x0, symName: __ZNSt3__16__treeINS_12__value_typeINS_12basic_stringIcNS_11char_traitsIcEENS_9allocatorIcEEEEP6ClientEENS_19__map_value_compareIS7_SA_NS_4lessIS7_EELb1EEENS5_ISA_EEE12__node_allocB8ue170006Ev, symObjAddr: 0x102A0, symBinAddr: 0x10001CB84, symSize: 0x28 }
  - { offsetInCU: 0x1A97B, offset: 0x4AA8E, size: 0x8, addend: 0x0, symName: __ZNSt3__116allocator_traitsINS_9allocatorINS_11__tree_nodeINS_12__value_typeINS_12basic_stringIcNS_11char_traitsIcEENS1_IcEEEEP6ClientEEPvEEEEE7destroyB8ue170006INS_4pairIKS8_SA_EEvvEEvRSE_PT_, symObjAddr: 0x102C8, symBinAddr: 0x10001CBAC, symSize: 0x28 }
  - { offsetInCU: 0x1A9B6, offset: 0x4AAC9, size: 0x8, addend: 0x0, symName: __ZNSt3__122__tree_key_value_typesINS_12__value_typeINS_12basic_stringIcNS_11char_traitsIcEENS_9allocatorIcEEEEP6ClientEEE9__get_ptrB8ue170006ERSA_, symObjAddr: 0x102F0, symBinAddr: 0x10001CBD4, symSize: 0x24 }
  - { offsetInCU: 0x1A9DA, offset: 0x4AAED, size: 0x8, addend: 0x0, symName: __ZNSt3__116allocator_traitsINS_9allocatorINS_11__tree_nodeINS_12__value_typeINS_12basic_stringIcNS_11char_traitsIcEENS1_IcEEEEP6ClientEEPvEEEEE10deallocateB8ue170006ERSE_PSD_m, symObjAddr: 0x10314, symBinAddr: 0x10001CBF8, symSize: 0x34 }
  - { offsetInCU: 0x1AA1C, offset: 0x4AB2F, size: 0x8, addend: 0x0, symName: __ZNSt3__117__compressed_pairINS_15__tree_end_nodeIPNS_16__tree_node_baseIPvEEEENS_9allocatorINS_11__tree_nodeINS_12__value_typeINS_12basic_stringIcNS_11char_traitsIcEENS7_IcEEEEP6ClientEES3_EEEEE6secondB8ue170006Ev, symObjAddr: 0x10348, symBinAddr: 0x10001CC2C, symSize: 0x24 }
  - { offsetInCU: 0x1AA40, offset: 0x4AB53, size: 0x8, addend: 0x0, symName: __ZNSt3__122__compressed_pair_elemINS_9allocatorINS_11__tree_nodeINS_12__value_typeINS_12basic_stringIcNS_11char_traitsIcEENS1_IcEEEEP6ClientEEPvEEEELi1ELb1EE5__getB8ue170006Ev, symObjAddr: 0x1036C, symBinAddr: 0x10001CC50, symSize: 0x14 }
  - { offsetInCU: 0x1AA65, offset: 0x4AB78, size: 0x8, addend: 0x0, symName: __ZNSt3__14pairIKNS_12basic_stringIcNS_11char_traitsIcEENS_9allocatorIcEEEEP6ClientED1Ev, symObjAddr: 0x10380, symBinAddr: 0x10001CC64, symSize: 0x2C }
  - { offsetInCU: 0x1AA8F, offset: 0x4ABA2, size: 0x8, addend: 0x0, symName: __ZNSt3__14pairIKNS_12basic_stringIcNS_11char_traitsIcEENS_9allocatorIcEEEEP6ClientED2Ev, symObjAddr: 0x103AC, symBinAddr: 0x10001CC90, symSize: 0x2C }
  - { offsetInCU: 0x1AAB9, offset: 0x4ABCC, size: 0x8, addend: 0x0, symName: __ZNSt3__112__value_typeINS_12basic_stringIcNS_11char_traitsIcEENS_9allocatorIcEEEEP6ClientE11__get_valueB8ue170006Ev, symObjAddr: 0x103D8, symBinAddr: 0x10001CCBC, symSize: 0x14 }
  - { offsetInCU: 0x1AADE, offset: 0x4ABF1, size: 0x8, addend: 0x0, symName: __ZNSt3__19allocatorINS_11__tree_nodeINS_12__value_typeINS_12basic_stringIcNS_11char_traitsIcEENS0_IcEEEEP6ClientEEPvEEE10deallocateB8ue170006EPSC_m, symObjAddr: 0x103EC, symBinAddr: 0x10001CCD0, symSize: 0x70 }
  - { offsetInCU: 0x1AB1E, offset: 0x4AC31, size: 0x8, addend: 0x0, symName: __ZNKSt3__16__treeINS_12__value_typeINS_12basic_stringIcNS_11char_traitsIcEENS_9allocatorIcEEEEP6ClientEENS_19__map_value_compareIS7_SA_NS_4lessIS7_EELb1EEENS5_ISA_EEE10__end_nodeB8ue170006Ev, symObjAddr: 0x1045C, symBinAddr: 0x10001CD40, symSize: 0x2C }
  - { offsetInCU: 0x1AB42, offset: 0x4AC55, size: 0x8, addend: 0x0, symName: __ZNKSt3__117__compressed_pairINS_15__tree_end_nodeIPNS_16__tree_node_baseIPvEEEENS_9allocatorINS_11__tree_nodeINS_12__value_typeINS_12basic_stringIcNS_11char_traitsIcEENS7_IcEEEEP6ClientEES3_EEEEE5firstB8ue170006Ev, symObjAddr: 0x1049C, symBinAddr: 0x10001CD6C, symSize: 0x24 }
  - { offsetInCU: 0x1AB66, offset: 0x4AC79, size: 0x8, addend: 0x0, symName: __ZNSt3__117__compressed_pairImNS_19__map_value_compareINS_12basic_stringIcNS_11char_traitsIcEENS_9allocatorIcEEEENS_12__value_typeIS7_P6ClientEENS_4lessIS7_EELb1EEEE5firstB8ue170006Ev, symObjAddr: 0x104D4, symBinAddr: 0x10001CD90, symSize: 0x24 }
  - { offsetInCU: 0x1AB8A, offset: 0x4AC9D, size: 0x8, addend: 0x0, symName: __ZNSt3__117__compressed_pairINS_15__tree_end_nodeIPNS_16__tree_node_baseIPvEEEENS_9allocatorINS_11__tree_nodeINS_12__value_typeINS_12basic_stringIcNS_11char_traitsIcEENS7_IcEEEEP6ClientEES3_EEEEE5firstB8ue170006Ev, symObjAddr: 0x1050C, symBinAddr: 0x10001CDB4, symSize: 0x24 }
  - { offsetInCU: 0x1ABAE, offset: 0x4ACC1, size: 0x8, addend: 0x0, symName: __ZNKSt3__117__compressed_pairImNS_19__map_value_compareINS_12basic_stringIcNS_11char_traitsIcEENS_9allocatorIcEEEENS_12__value_typeIS7_P6ClientEENS_4lessIS7_EELb1EEEE6secondB8ue170006Ev, symObjAddr: 0x10544, symBinAddr: 0x10001CDD8, symSize: 0x24 }
  - { offsetInCU: 0x1ABD2, offset: 0x4ACE5, size: 0x8, addend: 0x0, symName: __ZNKSt3__122__compressed_pair_elemINS_19__map_value_compareINS_12basic_stringIcNS_11char_traitsIcEENS_9allocatorIcEEEENS_12__value_typeIS7_P6ClientEENS_4lessIS7_EELb1EEELi1ELb1EE5__getB8ue170006Ev, symObjAddr: 0x10568, symBinAddr: 0x10001CDFC, symSize: 0x14 }
  - { offsetInCU: 0x1ABF7, offset: 0x4AD0A, size: 0x8, addend: 0x0, symName: __ZNSt3__117__compressed_pairImNS_19__map_value_compareINS_12basic_stringIcNS_11char_traitsIcEENS_9allocatorIcEEEENS_12__value_typeIS7_P6ClientEENS_4lessIS7_EELb1EEEE6secondB8ue170006Ev, symObjAddr: 0x1057C, symBinAddr: 0x10001CE10, symSize: 0x24 }
  - { offsetInCU: 0x1AC1B, offset: 0x4AD2E, size: 0x8, addend: 0x0, symName: __ZNSt3__122__compressed_pair_elemINS_19__map_value_compareINS_12basic_stringIcNS_11char_traitsIcEENS_9allocatorIcEEEENS_12__value_typeIS7_P6ClientEENS_4lessIS7_EELb1EEELi1ELb1EE5__getB8ue170006Ev, symObjAddr: 0x105A0, symBinAddr: 0x10001CE34, symSize: 0x14 }
  - { offsetInCU: 0x1AC40, offset: 0x4AD53, size: 0x8, addend: 0x0, symName: __ZNSt3__16__treeINS_12__value_typeINS_12basic_stringIcNS_11char_traitsIcEENS_9allocatorIcEEEEP6ClientEENS_19__map_value_compareIS7_SA_NS_4lessIS7_EELb1EEENS5_ISA_EEE19__copy_assign_allocB8ue170006ERKSG_NS_17integral_constantIbLb0EEE, symObjAddr: 0x105B4, symBinAddr: 0x10001CE48, symSize: 0x14 }
  - { offsetInCU: 0x1AC7D, offset: 0x4AD90, size: 0x8, addend: 0x0, symName: __ZNKSt3__13mapINS_12basic_stringIcNS_11char_traitsIcEENS_9allocatorIcEEEEP6ClientNS_4lessIS6_EENS4_INS_4pairIKS6_S8_EEEEE4cendB8ue170006Ev, symObjAddr: 0x105C8, symBinAddr: 0x10001CE5C, symSize: 0x2C }
  - { offsetInCU: 0x1ACA1, offset: 0x4ADB4, size: 0x8, addend: 0x0, symName: __ZNSt3__13mapINS_12basic_stringIcNS_11char_traitsIcEENS_9allocatorIcEEEEP6ClientNS_4lessIS6_EENS4_INS_4pairIKS6_S8_EEEEE6insertB8ue170006ENS_20__map_const_iteratorINS_21__tree_const_iteratorINS_12__value_typeIS6_S8_EEPNS_11__tree_nodeISJ_PvEElEEEERKSD_, symObjAddr: 0x10624, symBinAddr: 0x10001CEB8, symSize: 0x50 }
  - { offsetInCU: 0x1ACE3, offset: 0x4ADF6, size: 0x8, addend: 0x0, symName: __ZNSt3__120__map_const_iteratorINS_21__tree_const_iteratorINS_12__value_typeINS_12basic_stringIcNS_11char_traitsIcEENS_9allocatorIcEEEEP6ClientEEPNS_11__tree_nodeISB_PvEElEEEC1B8ue170006ESG_, symObjAddr: 0x10674, symBinAddr: 0x10001CF08, symSize: 0x34 }
  - { offsetInCU: 0x1AD1B, offset: 0x4AE2E, size: 0x8, addend: 0x0, symName: __ZNKSt3__120__map_const_iteratorINS_21__tree_const_iteratorINS_12__value_typeINS_12basic_stringIcNS_11char_traitsIcEENS_9allocatorIcEEEEP6ClientEEPNS_11__tree_nodeISB_PvEElEEEdeB8ue170006Ev, symObjAddr: 0x106A8, symBinAddr: 0x10001CF3C, symSize: 0x28 }
  - { offsetInCU: 0x1AD3F, offset: 0x4AE52, size: 0x8, addend: 0x0, symName: __ZNSt3__120__map_const_iteratorINS_21__tree_const_iteratorINS_12__value_typeINS_12basic_stringIcNS_11char_traitsIcEENS_9allocatorIcEEEEP6ClientEEPNS_11__tree_nodeISB_PvEElEEEppB8ue170006Ev, symObjAddr: 0x106D0, symBinAddr: 0x10001CF64, symSize: 0x2C }
  - { offsetInCU: 0x1AD63, offset: 0x4AE76, size: 0x8, addend: 0x0, symName: __ZNSt3__16__treeINS_12__value_typeINS_12basic_stringIcNS_11char_traitsIcEENS_9allocatorIcEEEEP6ClientEENS_19__map_value_compareIS7_SA_NS_4lessIS7_EELb1EEENS5_ISA_EEE15__insert_uniqueB8ue170006ENS_21__tree_const_iteratorISA_PNS_11__tree_nodeISA_PvEElEERKNS_4pairIKS7_S9_EE, symObjAddr: 0x10760, symBinAddr: 0x10001CFF4, symSize: 0x64 }
  - { offsetInCU: 0x1ADA5, offset: 0x4AEB8, size: 0x8, addend: 0x0, symName: __ZNSt3__114__map_iteratorINS_15__tree_iteratorINS_12__value_typeINS_12basic_stringIcNS_11char_traitsIcEENS_9allocatorIcEEEEP6ClientEEPNS_11__tree_nodeISB_PvEElEEEC1B8ue170006ESG_, symObjAddr: 0x107C4, symBinAddr: 0x10001D058, symSize: 0x34 }
  - { offsetInCU: 0x1ADDD, offset: 0x4AEF0, size: 0x8, addend: 0x0, symName: __ZNSt3__16__treeINS_12__value_typeINS_12basic_stringIcNS_11char_traitsIcEENS_9allocatorIcEEEEP6ClientEENS_19__map_value_compareIS7_SA_NS_4lessIS7_EELb1EEENS5_ISA_EEE30__emplace_hint_unique_key_argsIS7_JRKNS_4pairIKS7_S9_EEEEENSI_INS_15__tree_iteratorISA_PNS_11__tree_nodeISA_PvEElEEbEENS_21__tree_const_iteratorISA_SR_lEERKT_DpOT0_, symObjAddr: 0x107F8, symBinAddr: 0x10001D08C, symSize: 0x104 }
  - { offsetInCU: 0x1AEAE, offset: 0x4AFC1, size: 0x8, addend: 0x0, symName: __ZNSt3__122__tree_key_value_typesINS_12__value_typeINS_12basic_stringIcNS_11char_traitsIcEENS_9allocatorIcEEEEP6ClientEEE9__get_keyB8ue170006IKNS_4pairIKS7_S9_EEEENS_9enable_ifIXsr17__is_same_uncvrefIT_SF_EE5valueERSE_E4typeERSI_, symObjAddr: 0x108FC, symBinAddr: 0x10001D190, symSize: 0x14 }
  - { offsetInCU: 0x1AEDB, offset: 0x4AFEE, size: 0x8, addend: 0x0, symName: __ZNSt3__16__treeINS_12__value_typeINS_12basic_stringIcNS_11char_traitsIcEENS_9allocatorIcEEEEP6ClientEENS_19__map_value_compareIS7_SA_NS_4lessIS7_EELb1EEENS5_ISA_EEE12__find_equalIS7_EERPNS_16__tree_node_baseIPvEENS_21__tree_const_iteratorISA_PNS_11__tree_nodeISA_SJ_EElEERPNS_15__tree_end_nodeISL_EESM_RKT_, symObjAddr: 0x10910, symBinAddr: 0x10001D1A4, symSize: 0x304 }
  - { offsetInCU: 0x1AF85, offset: 0x4B098, size: 0x8, addend: 0x0, symName: __ZNSt3__16__treeINS_12__value_typeINS_12basic_stringIcNS_11char_traitsIcEENS_9allocatorIcEEEEP6ClientEENS_19__map_value_compareIS7_SA_NS_4lessIS7_EELb1EEENS5_ISA_EEE16__construct_nodeIJRKNS_4pairIKS7_S9_EEEEENS_10unique_ptrINS_11__tree_nodeISA_PvEENS_22__tree_node_destructorINS5_ISQ_EEEEEEDpOT_, symObjAddr: 0x10C14, symBinAddr: 0x10001D4A8, symSize: 0x118 }
  - { offsetInCU: 0x1AFE7, offset: 0x4B0FA, size: 0x8, addend: 0x0, symName: __ZNSt3__16__treeINS_12__value_typeINS_12basic_stringIcNS_11char_traitsIcEENS_9allocatorIcEEEEP6ClientEENS_19__map_value_compareIS7_SA_NS_4lessIS7_EELb1EEENS5_ISA_EEE16__insert_node_atEPNS_15__tree_end_nodeIPNS_16__tree_node_baseIPvEEEERSL_SL_, symObjAddr: 0x10D2C, symBinAddr: 0x10001D5C0, symSize: 0xCC }
  - { offsetInCU: 0x1B03B, offset: 0x4B14E, size: 0x8, addend: 0x0, symName: __ZNKSt3__110unique_ptrINS_11__tree_nodeINS_12__value_typeINS_12basic_stringIcNS_11char_traitsIcEENS_9allocatorIcEEEEP6ClientEEPvEENS_22__tree_node_destructorINS6_ISD_EEEEE3getB8ue170006Ev, symObjAddr: 0x10DF8, symBinAddr: 0x10001D68C, symSize: 0x28 }
  - { offsetInCU: 0x1B05F, offset: 0x4B172, size: 0x8, addend: 0x0, symName: __ZNSt3__110unique_ptrINS_11__tree_nodeINS_12__value_typeINS_12basic_stringIcNS_11char_traitsIcEENS_9allocatorIcEEEEP6ClientEEPvEENS_22__tree_node_destructorINS6_ISD_EEEEE7releaseB8ue170006Ev, symObjAddr: 0x10E20, symBinAddr: 0x10001D6B4, symSize: 0x44 }
  - { offsetInCU: 0x1B093, offset: 0x4B1A6, size: 0x8, addend: 0x0, symName: __ZNSt3__110unique_ptrINS_11__tree_nodeINS_12__value_typeINS_12basic_stringIcNS_11char_traitsIcEENS_9allocatorIcEEEEP6ClientEEPvEENS_22__tree_node_destructorINS6_ISD_EEEEED1B8ue170006Ev, symObjAddr: 0x10E64, symBinAddr: 0x10001D6F8, symSize: 0x2C }
  - { offsetInCU: 0x1B0BC, offset: 0x4B1CF, size: 0x8, addend: 0x0, symName: __ZNSt3__115__tree_iteratorINS_12__value_typeINS_12basic_stringIcNS_11char_traitsIcEENS_9allocatorIcEEEEP6ClientEEPNS_11__tree_nodeISA_PvEElEC1B8ue170006ESE_, symObjAddr: 0x10E90, symBinAddr: 0x10001D724, symSize: 0x34 }
  - { offsetInCU: 0x1B0F4, offset: 0x4B207, size: 0x8, addend: 0x0, symName: __ZNSt3__14pairINS_15__tree_iteratorINS_12__value_typeINS_12basic_stringIcNS_11char_traitsIcEENS_9allocatorIcEEEEP6ClientEEPNS_11__tree_nodeISB_PvEElEEbEC1B8ue170006ERKSG_RKb, symObjAddr: 0x10EC4, symBinAddr: 0x10001D758, symSize: 0x3C }
  - { offsetInCU: 0x1B139, offset: 0x4B24C, size: 0x8, addend: 0x0, symName: __ZNSt3__16__treeINS_12__value_typeINS_12basic_stringIcNS_11char_traitsIcEENS_9allocatorIcEEEEP6ClientEENS_19__map_value_compareIS7_SA_NS_4lessIS7_EELb1EEENS5_ISA_EEE3endB8ue170006Ev, symObjAddr: 0x10F00, symBinAddr: 0x10001D794, symSize: 0x34 }
  - { offsetInCU: 0x1B15D, offset: 0x4B270, size: 0x8, addend: 0x0, symName: __ZNSt3__121__tree_const_iteratorINS_12__value_typeINS_12basic_stringIcNS_11char_traitsIcEENS_9allocatorIcEEEEP6ClientEEPNS_11__tree_nodeISA_PvEElEC1B8ue170006ENS_15__tree_iteratorISA_SE_lEE, symObjAddr: 0x10F34, symBinAddr: 0x10001D7C8, symSize: 0x34 }
  - { offsetInCU: 0x1B195, offset: 0x4B2A8, size: 0x8, addend: 0x0, symName: __ZNKSt3__119__map_value_compareINS_12basic_stringIcNS_11char_traitsIcEENS_9allocatorIcEEEENS_12__value_typeIS6_P6ClientEENS_4lessIS6_EELb1EEclB8ue170006ERKS6_RKSA_, symObjAddr: 0x10F68, symBinAddr: 0x10001D7FC, symSize: 0x50 }
  - { offsetInCU: 0x1B1D7, offset: 0x4B2EA, size: 0x8, addend: 0x0, symName: __ZNKSt3__121__tree_const_iteratorINS_12__value_typeINS_12basic_stringIcNS_11char_traitsIcEENS_9allocatorIcEEEEP6ClientEEPNS_11__tree_nodeISA_PvEElEdeB8ue170006Ev, symObjAddr: 0x10FB8, symBinAddr: 0x10001D84C, symSize: 0x28 }
  - { offsetInCU: 0x1B1FB, offset: 0x4B30E, size: 0x8, addend: 0x0, symName: __ZNSt3__16__treeINS_12__value_typeINS_12basic_stringIcNS_11char_traitsIcEENS_9allocatorIcEEEEP6ClientEENS_19__map_value_compareIS7_SA_NS_4lessIS7_EELb1EEENS5_ISA_EEE5beginB8ue170006Ev, symObjAddr: 0x10FE0, symBinAddr: 0x10001D874, symSize: 0x34 }
  - { offsetInCU: 0x1B21F, offset: 0x4B332, size: 0x8, addend: 0x0, symName: __ZNKSt3__119__map_value_compareINS_12basic_stringIcNS_11char_traitsIcEENS_9allocatorIcEEEENS_12__value_typeIS6_P6ClientEENS_4lessIS6_EELb1EEclB8ue170006ERKSA_RKS6_, symObjAddr: 0x11014, symBinAddr: 0x10001D8A8, symSize: 0x48 }
  - { offsetInCU: 0x1B261, offset: 0x4B374, size: 0x8, addend: 0x0, symName: __ZNSt3__121__tree_const_iteratorINS_12__value_typeINS_12basic_stringIcNS_11char_traitsIcEENS_9allocatorIcEEEEP6ClientEEPNS_11__tree_nodeISA_PvEElEmmB8ue170006Ev, symObjAddr: 0x1105C, symBinAddr: 0x10001D8F0, symSize: 0x38 }
  - { offsetInCU: 0x1B285, offset: 0x4B398, size: 0x8, addend: 0x0, symName: __ZNSt3__16__treeINS_12__value_typeINS_12basic_stringIcNS_11char_traitsIcEENS_9allocatorIcEEEEP6ClientEENS_19__map_value_compareIS7_SA_NS_4lessIS7_EELb1EEENS5_ISA_EEE12__find_equalIS7_EERPNS_16__tree_node_baseIPvEERPNS_15__tree_end_nodeISL_EERKT_, symObjAddr: 0x11094, symBinAddr: 0x10001D928, symSize: 0x184 }
  - { offsetInCU: 0x1B2F3, offset: 0x4B406, size: 0x8, addend: 0x0, symName: __ZNKSt3__121__tree_const_iteratorINS_12__value_typeINS_12basic_stringIcNS_11char_traitsIcEENS_9allocatorIcEEEEP6ClientEEPNS_11__tree_nodeISA_PvEElE8__get_npB8ue170006Ev, symObjAddr: 0x11254, symBinAddr: 0x10001DAE8, symSize: 0x18 }
  - { offsetInCU: 0x1B318, offset: 0x4B42B, size: 0x8, addend: 0x0, symName: __ZNSt3__115__tree_iteratorINS_12__value_typeINS_12basic_stringIcNS_11char_traitsIcEENS_9allocatorIcEEEEP6ClientEEPNS_11__tree_nodeISA_PvEElEC1B8ue170006EPNS_15__tree_end_nodeIPNS_16__tree_node_baseISC_EEEE, symObjAddr: 0x1126C, symBinAddr: 0x10001DB00, symSize: 0x34 }
  - { offsetInCU: 0x1B350, offset: 0x4B463, size: 0x8, addend: 0x0, symName: __ZNSt3__115__tree_iteratorINS_12__value_typeINS_12basic_stringIcNS_11char_traitsIcEENS_9allocatorIcEEEEP6ClientEEPNS_11__tree_nodeISA_PvEElEC2B8ue170006EPNS_15__tree_end_nodeIPNS_16__tree_node_baseISC_EEEE, symObjAddr: 0x112A0, symBinAddr: 0x10001DB34, symSize: 0x20 }
  - { offsetInCU: 0x1B388, offset: 0x4B49B, size: 0x8, addend: 0x0, symName: __ZNSt3__121__tree_const_iteratorINS_12__value_typeINS_12basic_stringIcNS_11char_traitsIcEENS_9allocatorIcEEEEP6ClientEEPNS_11__tree_nodeISA_PvEElEC2B8ue170006ENS_15__tree_iteratorISA_SE_lEE, symObjAddr: 0x112C0, symBinAddr: 0x10001DB54, symSize: 0x20 }
  - { offsetInCU: 0x1B3C0, offset: 0x4B4D3, size: 0x8, addend: 0x0, symName: __ZNKSt3__112__value_typeINS_12basic_stringIcNS_11char_traitsIcEENS_9allocatorIcEEEEP6ClientE11__get_valueB8ue170006Ev, symObjAddr: 0x11314, symBinAddr: 0x10001DB74, symSize: 0x14 }
  - { offsetInCU: 0x1B3E5, offset: 0x4B4F8, size: 0x8, addend: 0x0, symName: __ZNKSt3__16__treeINS_12__value_typeINS_12basic_stringIcNS_11char_traitsIcEENS_9allocatorIcEEEEP6ClientEENS_19__map_value_compareIS7_SA_NS_4lessIS7_EELb1EEENS5_ISA_EEE10__root_ptrB8ue170006Ev, symObjAddr: 0x11914, symBinAddr: 0x10001DC80, symSize: 0x24 }
  - { offsetInCU: 0x1B409, offset: 0x4B51C, size: 0x8, addend: 0x0, symName: __ZNSt3__121__tree_const_iteratorINS_12__value_typeINS_12basic_stringIcNS_11char_traitsIcEENS_9allocatorIcEEEEP6ClientEEPNS_11__tree_nodeISA_PvEElEppB8ue170006Ev, symObjAddr: 0x11A14, symBinAddr: 0x10001DD80, symSize: 0x38 }
  - { offsetInCU: 0x1B42D, offset: 0x4B540, size: 0x8, addend: 0x0, symName: __ZNSt3__116allocator_traitsINS_9allocatorINS_11__tree_nodeINS_12__value_typeINS_12basic_stringIcNS_11char_traitsIcEENS1_IcEEEEP6ClientEEPvEEEEE8allocateB8ue170006ERSE_m, symObjAddr: 0x11B0C, symBinAddr: 0x10001DDB8, symSize: 0x2C }
  - { offsetInCU: 0x1B460, offset: 0x4B573, size: 0x8, addend: 0x0, symName: __ZNSt3__122__tree_node_destructorINS_9allocatorINS_11__tree_nodeINS_12__value_typeINS_12basic_stringIcNS_11char_traitsIcEENS1_IcEEEEP6ClientEEPvEEEEEC1B8ue170006ERSE_b, symObjAddr: 0x11B38, symBinAddr: 0x10001DDE4, symSize: 0x48 }
  - { offsetInCU: 0x1B4AC, offset: 0x4B5BF, size: 0x8, addend: 0x0, symName: __ZNSt3__110unique_ptrINS_11__tree_nodeINS_12__value_typeINS_12basic_stringIcNS_11char_traitsIcEENS_9allocatorIcEEEEP6ClientEEPvEENS_22__tree_node_destructorINS6_ISD_EEEEEC1B8ue170006ILb1EvEEPSD_NS_16__dependent_typeINS_27__unique_ptr_deleter_sfinaeISG_EEXT_EE20__good_rval_ref_typeE, symObjAddr: 0x11B80, symBinAddr: 0x10001DE2C, symSize: 0x3C }
  - { offsetInCU: 0x1B4FC, offset: 0x4B60F, size: 0x8, addend: 0x0, symName: __ZNSt3__116allocator_traitsINS_9allocatorINS_11__tree_nodeINS_12__value_typeINS_12basic_stringIcNS_11char_traitsIcEENS1_IcEEEEP6ClientEEPvEEEEE9constructB8ue170006INS_4pairIKS8_SA_EEJRKSJ_EvEEvRSE_PT_DpOT0_, symObjAddr: 0x11BBC, symBinAddr: 0x10001DE68, symSize: 0x34 }
  - { offsetInCU: 0x1B553, offset: 0x4B666, size: 0x8, addend: 0x0, symName: __ZNKSt3__110unique_ptrINS_11__tree_nodeINS_12__value_typeINS_12basic_stringIcNS_11char_traitsIcEENS_9allocatorIcEEEEP6ClientEEPvEENS_22__tree_node_destructorINS6_ISD_EEEEEptB8ue170006Ev, symObjAddr: 0x11BF0, symBinAddr: 0x10001DE9C, symSize: 0x28 }
  - { offsetInCU: 0x1B577, offset: 0x4B68A, size: 0x8, addend: 0x0, symName: __ZNSt3__110unique_ptrINS_11__tree_nodeINS_12__value_typeINS_12basic_stringIcNS_11char_traitsIcEENS_9allocatorIcEEEEP6ClientEEPvEENS_22__tree_node_destructorINS6_ISD_EEEEE11get_deleterB8ue170006Ev, symObjAddr: 0x11C18, symBinAddr: 0x10001DEC4, symSize: 0x24 }
  - { offsetInCU: 0x1B59B, offset: 0x4B6AE, size: 0x8, addend: 0x0, symName: __ZNSt3__19allocatorINS_11__tree_nodeINS_12__value_typeINS_12basic_stringIcNS_11char_traitsIcEENS0_IcEEEEP6ClientEEPvEEE8allocateB8ue170006Em, symObjAddr: 0x11C3C, symBinAddr: 0x10001DEE8, symSize: 0x84 }
  - { offsetInCU: 0x1B5D7, offset: 0x4B6EA, size: 0x8, addend: 0x0, symName: __ZNSt3__116allocator_traitsINS_9allocatorINS_11__tree_nodeINS_12__value_typeINS_12basic_stringIcNS_11char_traitsIcEENS1_IcEEEEP6ClientEEPvEEEEE8max_sizeB8ue170006ISE_vEEmRKSE_, symObjAddr: 0x11CC0, symBinAddr: 0x10001DF6C, symSize: 0x24 }
  - { offsetInCU: 0x1B605, offset: 0x4B718, size: 0x8, addend: 0x0, symName: __ZNKSt3__19allocatorINS_11__tree_nodeINS_12__value_typeINS_12basic_stringIcNS_11char_traitsIcEENS0_IcEEEEP6ClientEEPvEEE8max_sizeB8ue170006Ev, symObjAddr: 0x11CE4, symBinAddr: 0x10001DF90, symSize: 0x14 }
  - { offsetInCU: 0x1B62A, offset: 0x4B73D, size: 0x8, addend: 0x0, symName: __ZNSt3__122__tree_node_destructorINS_9allocatorINS_11__tree_nodeINS_12__value_typeINS_12basic_stringIcNS_11char_traitsIcEENS1_IcEEEEP6ClientEEPvEEEEEC2B8ue170006ERSE_b, symObjAddr: 0x11CF8, symBinAddr: 0x10001DFA4, symSize: 0x38 }
  - { offsetInCU: 0x1B671, offset: 0x4B784, size: 0x8, addend: 0x0, symName: __ZNSt3__110unique_ptrINS_11__tree_nodeINS_12__value_typeINS_12basic_stringIcNS_11char_traitsIcEENS_9allocatorIcEEEEP6ClientEEPvEENS_22__tree_node_destructorINS6_ISD_EEEEEC2B8ue170006ILb1EvEEPSD_NS_16__dependent_typeINS_27__unique_ptr_deleter_sfinaeISG_EEXT_EE20__good_rval_ref_typeE, symObjAddr: 0x11D30, symBinAddr: 0x10001DFDC, symSize: 0x5C }
  - { offsetInCU: 0x1B6C1, offset: 0x4B7D4, size: 0x8, addend: 0x0, symName: __ZNSt3__117__compressed_pairIPNS_11__tree_nodeINS_12__value_typeINS_12basic_stringIcNS_11char_traitsIcEENS_9allocatorIcEEEEP6ClientEEPvEENS_22__tree_node_destructorINS6_ISD_EEEEEC1B8ue170006IRSE_SH_EEOT_OT0_, symObjAddr: 0x11D8C, symBinAddr: 0x10001E038, symSize: 0x3C }
  - { offsetInCU: 0x1B718, offset: 0x4B82B, size: 0x8, addend: 0x0, symName: __ZNSt3__117__compressed_pairIPNS_11__tree_nodeINS_12__value_typeINS_12basic_stringIcNS_11char_traitsIcEENS_9allocatorIcEEEEP6ClientEEPvEENS_22__tree_node_destructorINS6_ISD_EEEEEC2B8ue170006IRSE_SH_EEOT_OT0_, symObjAddr: 0x11DC8, symBinAddr: 0x10001E074, symSize: 0x48 }
  - { offsetInCU: 0x1B76F, offset: 0x4B882, size: 0x8, addend: 0x0, symName: __ZNSt3__122__compressed_pair_elemIPNS_11__tree_nodeINS_12__value_typeINS_12basic_stringIcNS_11char_traitsIcEENS_9allocatorIcEEEEP6ClientEEPvEELi0ELb0EEC2B8ue170006IRSE_vEEOT_, symObjAddr: 0x11E10, symBinAddr: 0x10001E0BC, symSize: 0x24 }
  - { offsetInCU: 0x1B7B0, offset: 0x4B8C3, size: 0x8, addend: 0x0, symName: __ZNSt3__122__compressed_pair_elemINS_22__tree_node_destructorINS_9allocatorINS_11__tree_nodeINS_12__value_typeINS_12basic_stringIcNS_11char_traitsIcEENS2_IcEEEEP6ClientEEPvEEEEEELi1ELb0EEC2B8ue170006ISG_vEEOT_, symObjAddr: 0x11E34, symBinAddr: 0x10001E0E0, symSize: 0x24 }
  - { offsetInCU: 0x1B7F1, offset: 0x4B904, size: 0x8, addend: 0x0, symName: __ZNSt3__19allocatorINS_11__tree_nodeINS_12__value_typeINS_12basic_stringIcNS_11char_traitsIcEENS0_IcEEEEP6ClientEEPvEEE9constructB8ue170006INS_4pairIKS7_S9_EEJRKSH_EEEvPT_DpOT0_, symObjAddr: 0x11E58, symBinAddr: 0x10001E104, symSize: 0x30 }
  - { offsetInCU: 0x1B845, offset: 0x4B958, size: 0x8, addend: 0x0, symName: __ZNSt3__14pairIKNS_12basic_stringIcNS_11char_traitsIcEENS_9allocatorIcEEEEP6ClientEC1B8ue170006ERKSA_, symObjAddr: 0x11E88, symBinAddr: 0x10001E134, symSize: 0x34 }
  - { offsetInCU: 0x1B879, offset: 0x4B98C, size: 0x8, addend: 0x0, symName: __ZNSt3__14pairIKNS_12basic_stringIcNS_11char_traitsIcEENS_9allocatorIcEEEEP6ClientEC2B8ue170006ERKSA_, symObjAddr: 0x11EBC, symBinAddr: 0x10001E168, symSize: 0x40 }
  - { offsetInCU: 0x1B8AD, offset: 0x4B9C0, size: 0x8, addend: 0x0, symName: __ZNKSt3__117__compressed_pairIPNS_11__tree_nodeINS_12__value_typeINS_12basic_stringIcNS_11char_traitsIcEENS_9allocatorIcEEEEP6ClientEEPvEENS_22__tree_node_destructorINS6_ISD_EEEEE5firstB8ue170006Ev, symObjAddr: 0x11EFC, symBinAddr: 0x10001E1A8, symSize: 0x24 }
  - { offsetInCU: 0x1B8D1, offset: 0x4B9E4, size: 0x8, addend: 0x0, symName: __ZNKSt3__122__compressed_pair_elemIPNS_11__tree_nodeINS_12__value_typeINS_12basic_stringIcNS_11char_traitsIcEENS_9allocatorIcEEEEP6ClientEEPvEELi0ELb0EE5__getB8ue170006Ev, symObjAddr: 0x11F20, symBinAddr: 0x10001E1CC, symSize: 0x14 }
  - { offsetInCU: 0x1B8F6, offset: 0x4BA09, size: 0x8, addend: 0x0, symName: __ZNSt3__117__compressed_pairIPNS_11__tree_nodeINS_12__value_typeINS_12basic_stringIcNS_11char_traitsIcEENS_9allocatorIcEEEEP6ClientEEPvEENS_22__tree_node_destructorINS6_ISD_EEEEE6secondB8ue170006Ev, symObjAddr: 0x11F34, symBinAddr: 0x10001E1E0, symSize: 0x28 }
  - { offsetInCU: 0x1B91A, offset: 0x4BA2D, size: 0x8, addend: 0x0, symName: __ZNSt3__122__compressed_pair_elemINS_22__tree_node_destructorINS_9allocatorINS_11__tree_nodeINS_12__value_typeINS_12basic_stringIcNS_11char_traitsIcEENS2_IcEEEEP6ClientEEPvEEEEEELi1ELb0EE5__getB8ue170006Ev, symObjAddr: 0x11F5C, symBinAddr: 0x10001E208, symSize: 0x14 }
  - { offsetInCU: 0x1B93F, offset: 0x4BA52, size: 0x8, addend: 0x0, symName: __ZNSt3__117__compressed_pairIPNS_11__tree_nodeINS_12__value_typeINS_12basic_stringIcNS_11char_traitsIcEENS_9allocatorIcEEEEP6ClientEEPvEENS_22__tree_node_destructorINS6_ISD_EEEEE5firstB8ue170006Ev, symObjAddr: 0x123C4, symBinAddr: 0x10001E21C, symSize: 0x24 }
  - { offsetInCU: 0x1B963, offset: 0x4BA76, size: 0x8, addend: 0x0, symName: __ZNSt3__122__compressed_pair_elemIPNS_11__tree_nodeINS_12__value_typeINS_12basic_stringIcNS_11char_traitsIcEENS_9allocatorIcEEEEP6ClientEEPvEELi0ELb0EE5__getB8ue170006Ev, symObjAddr: 0x123E8, symBinAddr: 0x10001E240, symSize: 0x14 }
  - { offsetInCU: 0x1B988, offset: 0x4BA9B, size: 0x8, addend: 0x0, symName: __ZNSt3__110unique_ptrINS_11__tree_nodeINS_12__value_typeINS_12basic_stringIcNS_11char_traitsIcEENS_9allocatorIcEEEEP6ClientEEPvEENS_22__tree_node_destructorINS6_ISD_EEEEED2B8ue170006Ev, symObjAddr: 0x123FC, symBinAddr: 0x10001E254, symSize: 0x30 }
  - { offsetInCU: 0x1B9B1, offset: 0x4BAC4, size: 0x8, addend: 0x0, symName: __ZNSt3__110unique_ptrINS_11__tree_nodeINS_12__value_typeINS_12basic_stringIcNS_11char_traitsIcEENS_9allocatorIcEEEEP6ClientEEPvEENS_22__tree_node_destructorINS6_ISD_EEEEE5resetB8ue170006EPSD_, symObjAddr: 0x1242C, symBinAddr: 0x10001E284, symSize: 0x78 }
  - { offsetInCU: 0x1B9F4, offset: 0x4BB07, size: 0x8, addend: 0x0, symName: __ZNSt3__122__tree_node_destructorINS_9allocatorINS_11__tree_nodeINS_12__value_typeINS_12basic_stringIcNS_11char_traitsIcEENS1_IcEEEEP6ClientEEPvEEEEEclB8ue170006EPSD_, symObjAddr: 0x124A4, symBinAddr: 0x10001E2FC, symSize: 0xAC }
  - { offsetInCU: 0x1BA27, offset: 0x4BB3A, size: 0x8, addend: 0x0, symName: __ZNSt3__115__tree_iteratorINS_12__value_typeINS_12basic_stringIcNS_11char_traitsIcEENS_9allocatorIcEEEEP6ClientEEPNS_11__tree_nodeISA_PvEElEC2B8ue170006ESE_, symObjAddr: 0x12550, symBinAddr: 0x10001E3A8, symSize: 0x20 }
  - { offsetInCU: 0x1BA5F, offset: 0x4BB72, size: 0x8, addend: 0x0, symName: __ZNSt3__14pairINS_15__tree_iteratorINS_12__value_typeINS_12basic_stringIcNS_11char_traitsIcEENS_9allocatorIcEEEEP6ClientEEPNS_11__tree_nodeISB_PvEElEEbEC2B8ue170006ERKSG_RKb, symObjAddr: 0x12570, symBinAddr: 0x10001E3C8, symSize: 0x38 }
  - { offsetInCU: 0x1BAA4, offset: 0x4BBB7, size: 0x8, addend: 0x0, symName: __ZNSt3__114__map_iteratorINS_15__tree_iteratorINS_12__value_typeINS_12basic_stringIcNS_11char_traitsIcEENS_9allocatorIcEEEEP6ClientEEPNS_11__tree_nodeISB_PvEElEEEC2B8ue170006ESG_, symObjAddr: 0x125A8, symBinAddr: 0x10001E400, symSize: 0x20 }
  - { offsetInCU: 0x1BADC, offset: 0x4BBEF, size: 0x8, addend: 0x0, symName: __ZNSt3__120__map_const_iteratorINS_21__tree_const_iteratorINS_12__value_typeINS_12basic_stringIcNS_11char_traitsIcEENS_9allocatorIcEEEEP6ClientEEPNS_11__tree_nodeISB_PvEElEEEC2B8ue170006ESG_, symObjAddr: 0x125C8, symBinAddr: 0x10001E420, symSize: 0x20 }
  - { offsetInCU: 0x1BB14, offset: 0x4BC27, size: 0x8, addend: 0x0, symName: __ZNKSt3__121__tree_const_iteratorINS_12__value_typeINS_12basic_stringIcNS_11char_traitsIcEENS_9allocatorIcEEEEP6ClientEEPNS_11__tree_nodeISA_PvEElEptB8ue170006Ev, symObjAddr: 0x125E8, symBinAddr: 0x10001E440, symSize: 0x2C }
  - { offsetInCU: 0x1BB38, offset: 0x4BC4B, size: 0x8, addend: 0x0, symName: __ZNSt3__114pointer_traitsIPKNS_12__value_typeINS_12basic_stringIcNS_11char_traitsIcEENS_9allocatorIcEEEEP6ClientEEE10pointer_toB8ue170006ERSB_, symObjAddr: 0x12614, symBinAddr: 0x10001E46C, symSize: 0x14 }
  - { offsetInCU: 0x1BB5B, offset: 0x4BC6E, size: 0x8, addend: 0x0, symName: __ZNKSt3__16__treeINS_12__value_typeINS_12basic_stringIcNS_11char_traitsIcEENS_9allocatorIcEEEEP6ClientEENS_19__map_value_compareIS7_SA_NS_4lessIS7_EELb1EEENS5_ISA_EEE5beginB8ue170006Ev, symObjAddr: 0x12628, symBinAddr: 0x10001E480, symSize: 0x34 }
  - { offsetInCU: 0x1BB7F, offset: 0x4BC92, size: 0x8, addend: 0x0, symName: __ZNKSt3__16__treeINS_12__value_typeINS_12basic_stringIcNS_11char_traitsIcEENS_9allocatorIcEEEEP6ClientEENS_19__map_value_compareIS7_SA_NS_4lessIS7_EELb1EEENS5_ISA_EEE12__begin_nodeB8ue170006Ev, symObjAddr: 0x1265C, symBinAddr: 0x10001E4B4, symSize: 0x14 }
  - { offsetInCU: 0x1BBA4, offset: 0x4BCB7, size: 0x8, addend: 0x0, symName: __ZNSt3__121__tree_const_iteratorINS_12__value_typeINS_12basic_stringIcNS_11char_traitsIcEENS_9allocatorIcEEEEP6ClientEEPNS_11__tree_nodeISA_PvEElEC1B8ue170006EPNS_15__tree_end_nodeIPNS_16__tree_node_baseISC_EEEE, symObjAddr: 0x12670, symBinAddr: 0x10001E4C8, symSize: 0x34 }
  - { offsetInCU: 0x1BBDC, offset: 0x4BCEF, size: 0x8, addend: 0x0, symName: __ZNSt3__121__tree_const_iteratorINS_12__value_typeINS_12basic_stringIcNS_11char_traitsIcEENS_9allocatorIcEEEEP6ClientEEPNS_11__tree_nodeISA_PvEElEC2B8ue170006EPNS_15__tree_end_nodeIPNS_16__tree_node_baseISC_EEEE, symObjAddr: 0x126A4, symBinAddr: 0x10001E4FC, symSize: 0x20 }
  - { offsetInCU: 0x1BC14, offset: 0x4BD27, size: 0x8, addend: 0x0, symName: __ZNKSt3__16__treeINS_12__value_typeINS_12basic_stringIcNS_11char_traitsIcEENS_9allocatorIcEEEEP6ClientEENS_19__map_value_compareIS7_SA_NS_4lessIS7_EELb1EEENS5_ISA_EEE3endB8ue170006Ev, symObjAddr: 0x126C4, symBinAddr: 0x10001E51C, symSize: 0x34 }
  - { offsetInCU: 0x1BC38, offset: 0x4BD4B, size: 0x8, addend: 0x0, symName: __ZNSt3__14listINS_12basic_stringIcNS_11char_traitsIcEENS_9allocatorIcEEEENS4_IS6_EEED2Ev, symObjAddr: 0x127E0, symBinAddr: 0x10001E550, symSize: 0x2C }
  - { offsetInCU: 0x1BC64, offset: 0x4BD77, size: 0x8, addend: 0x0, symName: __ZNSt3__110__list_impINS_12basic_stringIcNS_11char_traitsIcEENS_9allocatorIcEEEENS4_IS6_EEED2Ev, symObjAddr: 0x1280C, symBinAddr: 0x10001E57C, symSize: 0x2C }
  - { offsetInCU: 0x1BC8F, offset: 0x4BDA2, size: 0x8, addend: 0x0, symName: __ZNSt3__110__list_impINS_12basic_stringIcNS_11char_traitsIcEENS_9allocatorIcEEEENS4_IS6_EEE5clearEv, symObjAddr: 0x12838, symBinAddr: 0x10001E5A8, symSize: 0xF4 }
  - { offsetInCU: 0x1BD02, offset: 0x4BE15, size: 0x8, addend: 0x0, symName: __ZNKSt3__110__list_impINS_12basic_stringIcNS_11char_traitsIcEENS_9allocatorIcEEEENS4_IS6_EEE5emptyB8ue170006Ev, symObjAddr: 0x1292C, symBinAddr: 0x10001E69C, symSize: 0x34 }
  - { offsetInCU: 0x1BD26, offset: 0x4BE39, size: 0x8, addend: 0x0, symName: __ZNSt3__110__list_impINS_12basic_stringIcNS_11char_traitsIcEENS_9allocatorIcEEEENS4_IS6_EEE12__node_allocB8ue170006Ev, symObjAddr: 0x12960, symBinAddr: 0x10001E6D0, symSize: 0x28 }
  - { offsetInCU: 0x1BD4A, offset: 0x4BE5D, size: 0x8, addend: 0x0, symName: __ZNKSt3__110__list_impINS_12basic_stringIcNS_11char_traitsIcEENS_9allocatorIcEEEENS4_IS6_EEE13__end_as_linkB8ue170006Ev, symObjAddr: 0x12988, symBinAddr: 0x10001E6F8, symSize: 0x58 }
  - { offsetInCU: 0x1BD6E, offset: 0x4BE81, size: 0x8, addend: 0x0, symName: __ZNSt3__110__list_impINS_12basic_stringIcNS_11char_traitsIcEENS_9allocatorIcEEEENS4_IS6_EEE14__unlink_nodesEPNS_16__list_node_baseIS6_PvEESC_, symObjAddr: 0x129E0, symBinAddr: 0x10001E750, symSize: 0x3C }
  - { offsetInCU: 0x1BDA3, offset: 0x4BEB6, size: 0x8, addend: 0x0, symName: __ZNSt3__110__list_impINS_12basic_stringIcNS_11char_traitsIcEENS_9allocatorIcEEEENS4_IS6_EEE4__szB8ue170006Ev, symObjAddr: 0x12A1C, symBinAddr: 0x10001E78C, symSize: 0x28 }
  - { offsetInCU: 0x1BDC7, offset: 0x4BEDA, size: 0x8, addend: 0x0, symName: __ZNSt3__116__list_node_baseINS_12basic_stringIcNS_11char_traitsIcEENS_9allocatorIcEEEEPvE9__as_nodeB8ue170006Ev, symObjAddr: 0x12A44, symBinAddr: 0x10001E7B4, symSize: 0x24 }
  - { offsetInCU: 0x1BDEB, offset: 0x4BEFE, size: 0x8, addend: 0x0, symName: __ZNSt3__116allocator_traitsINS_9allocatorINS_11__list_nodeINS_12basic_stringIcNS_11char_traitsIcEENS1_IcEEEEPvEEEEE7destroyB8ue170006IS7_vvEEvRSA_PT_, symObjAddr: 0x12A68, symBinAddr: 0x10001E7D8, symSize: 0x28 }
  - { offsetInCU: 0x1BE26, offset: 0x4BF39, size: 0x8, addend: 0x0, symName: __ZNSt3__116allocator_traitsINS_9allocatorINS_11__list_nodeINS_12basic_stringIcNS_11char_traitsIcEENS1_IcEEEEPvEEEEE10deallocateB8ue170006ERSA_PS9_m, symObjAddr: 0x12A90, symBinAddr: 0x10001E800, symSize: 0x34 }
  - { offsetInCU: 0x1BE68, offset: 0x4BF7B, size: 0x8, addend: 0x0, symName: __ZNKSt3__110__list_impINS_12basic_stringIcNS_11char_traitsIcEENS_9allocatorIcEEEENS4_IS6_EEE4__szB8ue170006Ev, symObjAddr: 0x12AC4, symBinAddr: 0x10001E834, symSize: 0x28 }
  - { offsetInCU: 0x1BE8C, offset: 0x4BF9F, size: 0x8, addend: 0x0, symName: __ZNKSt3__117__compressed_pairImNS_9allocatorINS_11__list_nodeINS_12basic_stringIcNS_11char_traitsIcEENS1_IcEEEEPvEEEEE5firstB8ue170006Ev, symObjAddr: 0x12AEC, symBinAddr: 0x10001E85C, symSize: 0x24 }
  - { offsetInCU: 0x1BEB0, offset: 0x4BFC3, size: 0x8, addend: 0x0, symName: __ZNKSt3__122__compressed_pair_elemImLi0ELb0EE5__getB8ue170006Ev, symObjAddr: 0x12B10, symBinAddr: 0x10001E880, symSize: 0x14 }
  - { offsetInCU: 0x1BED5, offset: 0x4BFE8, size: 0x8, addend: 0x0, symName: __ZNSt3__117__compressed_pairImNS_9allocatorINS_11__list_nodeINS_12basic_stringIcNS_11char_traitsIcEENS1_IcEEEEPvEEEEE6secondB8ue170006Ev, symObjAddr: 0x12B24, symBinAddr: 0x10001E894, symSize: 0x24 }
  - { offsetInCU: 0x1BEF9, offset: 0x4C00C, size: 0x8, addend: 0x0, symName: __ZNSt3__122__compressed_pair_elemINS_9allocatorINS_11__list_nodeINS_12basic_stringIcNS_11char_traitsIcEENS1_IcEEEEPvEEEELi1ELb1EE5__getB8ue170006Ev, symObjAddr: 0x12B48, symBinAddr: 0x10001E8B8, symSize: 0x14 }
  - { offsetInCU: 0x1BF1E, offset: 0x4C031, size: 0x8, addend: 0x0, symName: __ZNSt3__126__list_node_pointer_traitsINS_12basic_stringIcNS_11char_traitsIcEENS_9allocatorIcEEEEPvE26__unsafe_link_pointer_castB8ue170006EPNS_16__list_node_baseIS6_S7_EE, symObjAddr: 0x12B5C, symBinAddr: 0x10001E8CC, symSize: 0x14 }
  - { offsetInCU: 0x1BF42, offset: 0x4C055, size: 0x8, addend: 0x0, symName: __ZNSt3__116__list_node_baseINS_12basic_stringIcNS_11char_traitsIcEENS_9allocatorIcEEEEPvE6__selfB8ue170006Ev, symObjAddr: 0x12B70, symBinAddr: 0x10001E8E0, symSize: 0x24 }
  - { offsetInCU: 0x1BF6B, offset: 0x4C07E, size: 0x8, addend: 0x0, symName: __ZNSt3__114pointer_traitsIPNS_16__list_node_baseINS_12basic_stringIcNS_11char_traitsIcEENS_9allocatorIcEEEEPvEEE10pointer_toB8ue170006ERS9_, symObjAddr: 0x12B94, symBinAddr: 0x10001E904, symSize: 0x14 }
  - { offsetInCU: 0x1BF8E, offset: 0x4C0A1, size: 0x8, addend: 0x0, symName: __ZNSt3__117__compressed_pairImNS_9allocatorINS_11__list_nodeINS_12basic_stringIcNS_11char_traitsIcEENS1_IcEEEEPvEEEEE5firstB8ue170006Ev, symObjAddr: 0x12BA8, symBinAddr: 0x10001E918, symSize: 0x24 }
  - { offsetInCU: 0x1BFB2, offset: 0x4C0C5, size: 0x8, addend: 0x0, symName: __ZNSt3__19allocatorINS_11__list_nodeINS_12basic_stringIcNS_11char_traitsIcEENS0_IcEEEEPvEEE10deallocateB8ue170006EPS8_m, symObjAddr: 0x12BCC, symBinAddr: 0x10001E93C, symSize: 0x74 }
  - { offsetInCU: 0x1BFF2, offset: 0x4C105, size: 0x8, addend: 0x0, symName: __ZNSt3__119basic_ostringstreamIcNS_11char_traitsIcEENS_9allocatorIcEEED2Ev, symObjAddr: 0x12C40, symBinAddr: 0x10001E9B0, symSize: 0x9C }
  - { offsetInCU: 0x1C02A, offset: 0x4C13D, size: 0x8, addend: 0x0, symName: __ZTv0_n24_NSt3__119basic_ostringstreamIcNS_11char_traitsIcEENS_9allocatorIcEEED1Ev, symObjAddr: 0x12CDC, symBinAddr: 0x10001EA4C, symSize: 0x28 }
  - { offsetInCU: 0x1C041, offset: 0x4C154, size: 0x8, addend: 0x0, symName: __ZNSt3__113basic_fstreamIcNS_11char_traitsIcEEED2Ev, symObjAddr: 0x12D04, symBinAddr: 0x10001EA74, symSize: 0xA4 }
  - { offsetInCU: 0x1C077, offset: 0x4C18A, size: 0x8, addend: 0x0, symName: __ZThn16_NSt3__113basic_fstreamIcNS_11char_traitsIcEEED1Ev, symObjAddr: 0x12DA8, symBinAddr: 0x10001EB18, symSize: 0x1C }
  - { offsetInCU: 0x1C08D, offset: 0x4C1A0, size: 0x8, addend: 0x0, symName: __ZTv0_n24_NSt3__113basic_fstreamIcNS_11char_traitsIcEEED1Ev, symObjAddr: 0x12DC4, symBinAddr: 0x10001EB34, symSize: 0x28 }
  - { offsetInCU: 0x1C0A3, offset: 0x4C1B6, size: 0x8, addend: 0x0, symName: __ZNSt3__113basic_fstreamIcNS_11char_traitsIcEEED0Ev, symObjAddr: 0x12DEC, symBinAddr: 0x10001EB5C, symSize: 0x58 }
  - { offsetInCU: 0x1C0CD, offset: 0x4C1E0, size: 0x8, addend: 0x0, symName: __ZThn16_NSt3__113basic_fstreamIcNS_11char_traitsIcEEED0Ev, symObjAddr: 0x12E44, symBinAddr: 0x10001EBB4, symSize: 0x18 }
  - { offsetInCU: 0x1C0E3, offset: 0x4C1F6, size: 0x8, addend: 0x0, symName: __ZTv0_n24_NSt3__113basic_fstreamIcNS_11char_traitsIcEEED0Ev, symObjAddr: 0x12E5C, symBinAddr: 0x10001EBCC, symSize: 0x20 }
  - { offsetInCU: 0x1C0F9, offset: 0x4C20C, size: 0x8, addend: 0x0, symName: __ZNSt3__14pairIKNS_12basic_stringIcNS_11char_traitsIcEENS_9allocatorIcEEEEM6ServerFvRS7_R6ClientEED2Ev, symObjAddr: 0x12E7C, symBinAddr: 0x10001EBEC, symSize: 0x2C }
  - { offsetInCU: 0x1C123, offset: 0x4C236, size: 0x8, addend: 0x0, symName: __ZNSt3__112basic_stringIcNS_11char_traitsIcEENS_9allocatorIcEEE15__make_iteratorB8ue170006EPc, symObjAddr: 0x12EA8, symBinAddr: 0x10001EC18, symSize: 0x30 }
  - { offsetInCU: 0x1C156, offset: 0x4C269, size: 0x8, addend: 0x0, symName: __ZNSt3__111__wrap_iterIPcEC1B8ue170006ES1_, symObjAddr: 0x12F2C, symBinAddr: 0x10001EC48, symSize: 0x34 }
  - { offsetInCU: 0x1C18D, offset: 0x4C2A0, size: 0x8, addend: 0x0, symName: __ZNSt3__111__wrap_iterIPcEC2B8ue170006ES1_, symObjAddr: 0x12F60, symBinAddr: 0x10001EC7C, symSize: 0x20 }
  - { offsetInCU: 0x1C1C4, offset: 0x4C2D7, size: 0x8, addend: 0x0, symName: __ZNKSt3__111__wrap_iterIPcE4baseB8ue170006Ev, symObjAddr: 0x13064, symBinAddr: 0x10001ECE4, symSize: 0x18 }
  - { offsetInCU: 0x1C1E9, offset: 0x4C2FC, size: 0x8, addend: 0x0, symName: __ZNKSt3__111__wrap_iterIPKcE4baseB8ue170006Ev, symObjAddr: 0x130FC, symBinAddr: 0x10001ED7C, symSize: 0x18 }
  - { offsetInCU: 0x1C20E, offset: 0x4C321, size: 0x8, addend: 0x0, symName: __ZNSt3__111__wrap_iterIPKcEC2B8ue170006IPcEERKNS0_IT_EEPNS_9enable_ifIXsr14is_convertibleIS6_S2_EE5valueEvE4typeE, symObjAddr: 0x13114, symBinAddr: 0x10001ED94, symSize: 0x40 }
  - { offsetInCU: 0x1C259, offset: 0x4C36C, size: 0x8, addend: 0x0, symName: __ZNSt3__111__wrap_iterIPcEmmB8ue170006Ev, symObjAddr: 0x13154, symBinAddr: 0x10001EDD4, symSize: 0x20 }
  - { offsetInCU: 0x1C27E, offset: 0x4C391, size: 0x8, addend: 0x0, symName: __ZNSt3__111__wrap_iterIPcEpLB8ue170006El, symObjAddr: 0x13174, symBinAddr: 0x10001EDF4, symSize: 0x28 }
  - { offsetInCU: 0x1C2BB, offset: 0x4C3CE, size: 0x8, addend: 0x0, symName: __ZNSt3__115basic_stringbufIcNS_11char_traitsIcEENS_9allocatorIcEEEC1B8ue170006ERKNS_12basic_stringIcS2_S4_EEj, symObjAddr: 0x138A0, symBinAddr: 0x10001EE1C, symSize: 0x3C }
  - { offsetInCU: 0x1C302, offset: 0x4C415, size: 0x8, addend: 0x0, symName: __ZNSt3__115basic_stringbufIcNS_11char_traitsIcEENS_9allocatorIcEEEC2B8ue170006ERKNS_12basic_stringIcS2_S4_EEj, symObjAddr: 0x1394C, symBinAddr: 0x10001EE58, symSize: 0xD8 }
  - { offsetInCU: 0x1C349, offset: 0x4C45C, size: 0x8, addend: 0x0, symName: __ZNSt3__112basic_stringIcNS_11char_traitsIcEENS_9allocatorIcEEEC1B8ue170006ERKS4_, symObjAddr: 0x13A48, symBinAddr: 0x10001EF30, symSize: 0x34 }
  - { offsetInCU: 0x1C381, offset: 0x4C494, size: 0x8, addend: 0x0, symName: __ZNSt3__112basic_stringIcNS_11char_traitsIcEENS_9allocatorIcEEEC2B8ue170006ERKS4_, symObjAddr: 0x13AD8, symBinAddr: 0x10001EF64, symSize: 0x40 }
  - { offsetInCU: 0x1C3E1, offset: 0x4C4F4, size: 0x8, addend: 0x0, symName: __ZNKSt3__113basic_istreamIcNS_11char_traitsIcEEE6sentrycvbB8ue170006Ev, symObjAddr: 0x14080, symBinAddr: 0x10001EFA4, symSize: 0x1C }
  - { offsetInCU: 0x1C406, offset: 0x4C519, size: 0x8, addend: 0x0, symName: __ZNSt3__112basic_stringIcNS_11char_traitsIcEENS_9allocatorIcEEE5clearB8ue170006Ev, symObjAddr: 0x1409C, symBinAddr: 0x10001EFC0, symSize: 0x78 }
  - { offsetInCU: 0x1C42D, offset: 0x4C540, size: 0x8, addend: 0x0, symName: __ZNSt3__115basic_streambufIcNS_11char_traitsIcEEE5sgetcB8ue170006Ev, symObjAddr: 0x14228, symBinAddr: 0x10001F038, symSize: 0x70 }
  - { offsetInCU: 0x1C451, offset: 0x4C564, size: 0x8, addend: 0x0, symName: __ZNSt3__111char_traitsIcE12to_char_typeB8ue170006Ei, symObjAddr: 0x142C0, symBinAddr: 0x10001F0A8, symSize: 0x18 }
  - { offsetInCU: 0x1C479, offset: 0x4C58C, size: 0x8, addend: 0x0, symName: __ZNKSt3__15ctypeIcE2isB8ue170006Ejc, symObjAddr: 0x142D8, symBinAddr: 0x10001F0C0, symSize: 0x7C }
  - { offsetInCU: 0x1C4BB, offset: 0x4C5CE, size: 0x8, addend: 0x0, symName: __ZNSt3__115basic_streambufIcNS_11char_traitsIcEEE6sbumpcB8ue170006Ev, symObjAddr: 0x14354, symBinAddr: 0x10001F13C, symSize: 0x78 }
  - { offsetInCU: 0x1C4DF, offset: 0x4C5F2, size: 0x8, addend: 0x0, symName: __ZNSt3__18ios_base18__setstate_nothrowB8ue170006Ej, symObjAddr: 0x143F8, symBinAddr: 0x10001F1B4, symSize: 0x64 }
  - { offsetInCU: 0x1C513, offset: 0x4C626, size: 0x8, addend: 0x0, symName: __ZNKSt3__19basic_iosIcNS_11char_traitsIcEEE10exceptionsB8ue170006Ev, symObjAddr: 0x1445C, symBinAddr: 0x10001F218, symSize: 0x24 }
  - { offsetInCU: 0x1C537, offset: 0x4C64A, size: 0x8, addend: 0x0, symName: __ZNSt3__111char_traitsIcE6assignB8ue170006ERcRKc, symObjAddr: 0x144AC, symBinAddr: 0x10001F23C, symSize: 0x24 }
  - { offsetInCU: 0x1C568, offset: 0x4C67B, size: 0x8, addend: 0x0, symName: __ZNSt3__111char_traitsIcE11to_int_typeB8ue170006Ec, symObjAddr: 0x1457C, symBinAddr: 0x10001F260, symSize: 0x14 }
  - { offsetInCU: 0x1C58C, offset: 0x4C69F, size: 0x8, addend: 0x0, symName: __ZNKSt3__18ios_base10exceptionsB8ue170006Ev, symObjAddr: 0x14590, symBinAddr: 0x10001F274, symSize: 0x18 }
  - { offsetInCU: 0x1C5B3, offset: 0x4C6C6, size: 0x8, addend: 0x0, symName: __ZNKSt3__19basic_iosIcNS_11char_traitsIcEEE4failB8ue170006Ev, symObjAddr: 0x145DC, symBinAddr: 0x10001F28C, symSize: 0x28 }
  - { offsetInCU: 0x1C5D7, offset: 0x4C6EA, size: 0x8, addend: 0x0, symName: __ZNKSt3__18ios_base4failB8ue170006Ev, symObjAddr: 0x14604, symBinAddr: 0x10001F2B4, symSize: 0x28 }
  - { offsetInCU: 0x1C5FE, offset: 0x4C711, size: 0x8, addend: 0x0, symName: __ZNSt3__16vectorINS_12basic_stringIcNS_11char_traitsIcEENS_9allocatorIcEEEENS4_IS6_EEE9__end_capB8ue170006Ev, symObjAddr: 0x1462C, symBinAddr: 0x10001F2DC, symSize: 0x28 }
  - { offsetInCU: 0x1C622, offset: 0x4C735, size: 0x8, addend: 0x0, symName: __ZNSt3__16vectorINS_12basic_stringIcNS_11char_traitsIcEENS_9allocatorIcEEEENS4_IS6_EEE22__construct_one_at_endB8ue170006IJRKS6_EEEvDpOT_, symObjAddr: 0x14654, symBinAddr: 0x10001F304, symSize: 0x98 }
  - { offsetInCU: 0x1C670, offset: 0x4C783, size: 0x8, addend: 0x0, symName: __ZNSt3__16vectorINS_12basic_stringIcNS_11char_traitsIcEENS_9allocatorIcEEEENS4_IS6_EEE21__push_back_slow_pathIRKS6_EEvOT_, symObjAddr: 0x146EC, symBinAddr: 0x10001F39C, symSize: 0xE0 }
  - { offsetInCU: 0x1C6CF, offset: 0x4C7E2, size: 0x8, addend: 0x0, symName: __ZNSt3__117__compressed_pairIPNS_12basic_stringIcNS_11char_traitsIcEENS_9allocatorIcEEEENS4_IS6_EEE5firstB8ue170006Ev, symObjAddr: 0x147CC, symBinAddr: 0x10001F47C, symSize: 0x24 }
  - { offsetInCU: 0x1C6F3, offset: 0x4C806, size: 0x8, addend: 0x0, symName: __ZNSt3__122__compressed_pair_elemIPNS_12basic_stringIcNS_11char_traitsIcEENS_9allocatorIcEEEELi0ELb0EE5__getB8ue170006Ev, symObjAddr: 0x147F0, symBinAddr: 0x10001F4A0, symSize: 0x14 }
  - { offsetInCU: 0x1C731, offset: 0x4C844, size: 0x8, addend: 0x0, symName: __ZNSt3__16vectorINS_12basic_stringIcNS_11char_traitsIcEENS_9allocatorIcEEEENS4_IS6_EEE21_ConstructTransactionC1B8ue170006ERS8_m, symObjAddr: 0x14804, symBinAddr: 0x10001F4B4, symSize: 0x3C }
  - { offsetInCU: 0x1C778, offset: 0x4C88B, size: 0x8, addend: 0x0, symName: __ZNSt3__116allocator_traitsINS_9allocatorINS_12basic_stringIcNS_11char_traitsIcEENS1_IcEEEEEEE9constructB8ue170006IS6_JRKS6_EvEEvRS7_PT_DpOT0_, symObjAddr: 0x14840, symBinAddr: 0x10001F4F0, symSize: 0x34 }
  - { offsetInCU: 0x1C7CF, offset: 0x4C8E2, size: 0x8, addend: 0x0, symName: __ZNSt3__16vectorINS_12basic_stringIcNS_11char_traitsIcEENS_9allocatorIcEEEENS4_IS6_EEE21_ConstructTransactionD1B8ue170006Ev, symObjAddr: 0x14874, symBinAddr: 0x10001F524, symSize: 0x2C }
  - { offsetInCU: 0x1C7F8, offset: 0x4C90B, size: 0x8, addend: 0x0, symName: __ZNSt3__16vectorINS_12basic_stringIcNS_11char_traitsIcEENS_9allocatorIcEEEENS4_IS6_EEE21_ConstructTransactionC2B8ue170006ERS8_m, symObjAddr: 0x148A0, symBinAddr: 0x10001F550, symSize: 0x4C }
  - { offsetInCU: 0x1C83F, offset: 0x4C952, size: 0x8, addend: 0x0, symName: __ZNSt3__19allocatorINS_12basic_stringIcNS_11char_traitsIcEENS0_IcEEEEE9constructB8ue170006IS5_JRKS5_EEEvPT_DpOT0_, symObjAddr: 0x148EC, symBinAddr: 0x10001F59C, symSize: 0x30 }
  - { offsetInCU: 0x1C893, offset: 0x4C9A6, size: 0x8, addend: 0x0, symName: __ZNSt3__16vectorINS_12basic_stringIcNS_11char_traitsIcEENS_9allocatorIcEEEENS4_IS6_EEE21_ConstructTransactionD2B8ue170006Ev, symObjAddr: 0x1491C, symBinAddr: 0x10001F5CC, symSize: 0x20 }
  - { offsetInCU: 0x1C8BC, offset: 0x4C9CF, size: 0x8, addend: 0x0, symName: __ZNKSt3__16vectorINS_12basic_stringIcNS_11char_traitsIcEENS_9allocatorIcEEEENS4_IS6_EEE11__recommendB8ue170006Em, symObjAddr: 0x1493C, symBinAddr: 0x10001F5EC, symSize: 0xB4 }
  - { offsetInCU: 0x1C912, offset: 0x4CA25, size: 0x8, addend: 0x0, symName: __ZNSt3__114__split_bufferINS_12basic_stringIcNS_11char_traitsIcEENS_9allocatorIcEEEERNS4_IS6_EEEC1EmmS8_, symObjAddr: 0x149F0, symBinAddr: 0x10001F6A0, symSize: 0x44 }
  - { offsetInCU: 0x1C967, offset: 0x4CA7A, size: 0x8, addend: 0x0, symName: __ZNSt3__114__split_bufferINS_12basic_stringIcNS_11char_traitsIcEENS_9allocatorIcEEEERNS4_IS6_EEED1Ev, symObjAddr: 0x14B44, symBinAddr: 0x10001F7F4, symSize: 0x2C }
  - { offsetInCU: 0x1C992, offset: 0x4CAA5, size: 0x8, addend: 0x0, symName: __ZNKSt3__16vectorINS_12basic_stringIcNS_11char_traitsIcEENS_9allocatorIcEEEENS4_IS6_EEE8max_sizeEv, symObjAddr: 0x14B70, symBinAddr: 0x10001F820, symSize: 0x74 }
  - { offsetInCU: 0x1C9B9, offset: 0x4CACC, size: 0x8, addend: 0x0, symName: __ZNKSt3__16vectorINS_12basic_stringIcNS_11char_traitsIcEENS_9allocatorIcEEEENS4_IS6_EEE20__throw_length_errorB8ue170006Ev, symObjAddr: 0x14BE4, symBinAddr: 0x10001F894, symSize: 0x1C }
  - { offsetInCU: 0x1C9E7, offset: 0x4CAFA, size: 0x8, addend: 0x0, symName: __ZNSt3__116allocator_traitsINS_9allocatorINS_12basic_stringIcNS_11char_traitsIcEENS1_IcEEEEEEE8max_sizeB8ue170006IS7_vEEmRKS7_, symObjAddr: 0x14C00, symBinAddr: 0x10001F8B0, symSize: 0x24 }
  - { offsetInCU: 0x1CA15, offset: 0x4CB28, size: 0x8, addend: 0x0, symName: __ZNKSt3__16vectorINS_12basic_stringIcNS_11char_traitsIcEENS_9allocatorIcEEEENS4_IS6_EEE7__allocB8ue170006Ev, symObjAddr: 0x14C24, symBinAddr: 0x10001F8D4, symSize: 0x28 }
  - { offsetInCU: 0x1CA39, offset: 0x4CB4C, size: 0x8, addend: 0x0, symName: __ZNKSt3__19allocatorINS_12basic_stringIcNS_11char_traitsIcEENS0_IcEEEEE8max_sizeB8ue170006Ev, symObjAddr: 0x14C4C, symBinAddr: 0x10001F8FC, symSize: 0x18 }
  - { offsetInCU: 0x1CA5E, offset: 0x4CB71, size: 0x8, addend: 0x0, symName: __ZNKSt3__117__compressed_pairIPNS_12basic_stringIcNS_11char_traitsIcEENS_9allocatorIcEEEENS4_IS6_EEE6secondB8ue170006Ev, symObjAddr: 0x14C64, symBinAddr: 0x10001F914, symSize: 0x24 }
  - { offsetInCU: 0x1CA82, offset: 0x4CB95, size: 0x8, addend: 0x0, symName: __ZNKSt3__122__compressed_pair_elemINS_9allocatorINS_12basic_stringIcNS_11char_traitsIcEENS1_IcEEEEEELi1ELb1EE5__getB8ue170006Ev, symObjAddr: 0x14C88, symBinAddr: 0x10001F938, symSize: 0x14 }
  - { offsetInCU: 0x1CAA7, offset: 0x4CBBA, size: 0x8, addend: 0x0, symName: __ZNSt3__114__split_bufferINS_12basic_stringIcNS_11char_traitsIcEENS_9allocatorIcEEEERNS4_IS6_EEEC2EmmS8_, symObjAddr: 0x14C9C, symBinAddr: 0x10001F94C, symSize: 0xE0 }
  - { offsetInCU: 0x1CB1A, offset: 0x4CC2D, size: 0x8, addend: 0x0, symName: __ZNSt3__117__compressed_pairIPNS_12basic_stringIcNS_11char_traitsIcEENS_9allocatorIcEEEERNS4_IS6_EEEC1B8ue170006IDnS9_EEOT_OT0_, symObjAddr: 0x14D7C, symBinAddr: 0x10001FA2C, symSize: 0x3C }
  - { offsetInCU: 0x1CB71, offset: 0x4CC84, size: 0x8, addend: 0x0, symName: __ZNSt3__114__split_bufferINS_12basic_stringIcNS_11char_traitsIcEENS_9allocatorIcEEEERNS4_IS6_EEE7__allocB8ue170006Ev, symObjAddr: 0x14DF8, symBinAddr: 0x10001FAA8, symSize: 0x28 }
  - { offsetInCU: 0x1CB95, offset: 0x4CCA8, size: 0x8, addend: 0x0, symName: __ZNSt3__114__split_bufferINS_12basic_stringIcNS_11char_traitsIcEENS_9allocatorIcEEEERNS4_IS6_EEE9__end_capB8ue170006Ev, symObjAddr: 0x14E20, symBinAddr: 0x10001FAD0, symSize: 0x28 }
  - { offsetInCU: 0x1CBB9, offset: 0x4CCCC, size: 0x8, addend: 0x0, symName: __ZNSt3__117__compressed_pairIPNS_12basic_stringIcNS_11char_traitsIcEENS_9allocatorIcEEEERNS4_IS6_EEEC2B8ue170006IDnS9_EEOT_OT0_, symObjAddr: 0x14E48, symBinAddr: 0x10001FAF8, symSize: 0x48 }
  - { offsetInCU: 0x1CC10, offset: 0x4CD23, size: 0x8, addend: 0x0, symName: __ZNSt3__122__compressed_pair_elemIRNS_9allocatorINS_12basic_stringIcNS_11char_traitsIcEENS1_IcEEEEEELi1ELb0EEC2B8ue170006IS8_vEEOT_, symObjAddr: 0x14E90, symBinAddr: 0x10001FB40, symSize: 0x20 }
  - { offsetInCU: 0x1CC51, offset: 0x4CD64, size: 0x8, addend: 0x0, symName: __ZNSt3__19allocatorINS_12basic_stringIcNS_11char_traitsIcEENS0_IcEEEEE8allocateB8ue170006Em, symObjAddr: 0x14EB0, symBinAddr: 0x10001FB60, symSize: 0x8C }
  - { offsetInCU: 0x1CC83, offset: 0x4CD96, size: 0x8, addend: 0x0, symName: __ZNSt3__117__compressed_pairIPNS_12basic_stringIcNS_11char_traitsIcEENS_9allocatorIcEEEERNS4_IS6_EEE6secondB8ue170006Ev, symObjAddr: 0x14F3C, symBinAddr: 0x10001FBEC, symSize: 0x28 }
  - { offsetInCU: 0x1CCA7, offset: 0x4CDBA, size: 0x8, addend: 0x0, symName: __ZNSt3__122__compressed_pair_elemIRNS_9allocatorINS_12basic_stringIcNS_11char_traitsIcEENS1_IcEEEEEELi1ELb0EE5__getB8ue170006Ev, symObjAddr: 0x14F64, symBinAddr: 0x10001FC14, symSize: 0x18 }
  - { offsetInCU: 0x1CCCC, offset: 0x4CDDF, size: 0x8, addend: 0x0, symName: __ZNSt3__117__compressed_pairIPNS_12basic_stringIcNS_11char_traitsIcEENS_9allocatorIcEEEERNS4_IS6_EEE5firstB8ue170006Ev, symObjAddr: 0x14F7C, symBinAddr: 0x10001FC2C, symSize: 0x24 }
  - { offsetInCU: 0x1CCF0, offset: 0x4CE03, size: 0x8, addend: 0x0, symName: __ZNSt3__116reverse_iteratorIPNS_12basic_stringIcNS_11char_traitsIcEENS_9allocatorIcEEEEEC1B8ue170006ES7_, symObjAddr: 0x150D4, symBinAddr: 0x10001FD84, symSize: 0x34 }
  - { offsetInCU: 0x1CD27, offset: 0x4CE3A, size: 0x8, addend: 0x0, symName: __ZNKSt3__116reverse_iteratorIPNS_12basic_stringIcNS_11char_traitsIcEENS_9allocatorIcEEEEE4baseB8ue170006Ev, symObjAddr: 0x15108, symBinAddr: 0x10001FDB8, symSize: 0x18 }
  - { offsetInCU: 0x1CD4C, offset: 0x4CE5F, size: 0x8, addend: 0x0, symName: __ZNKSt3__16vectorINS_12basic_stringIcNS_11char_traitsIcEENS_9allocatorIcEEEENS4_IS6_EEE14__annotate_newB8ue170006Em, symObjAddr: 0x1515C, symBinAddr: 0x10001FE0C, symSize: 0xC8 }
  - { offsetInCU: 0x1CD7F, offset: 0x4CE92, size: 0x8, addend: 0x0, symName: __ZNSt3__129_AllocatorDestroyRangeReverseINS_9allocatorINS_12basic_stringIcNS_11char_traitsIcEENS1_IcEEEEEENS_16reverse_iteratorIPS6_EEEC1B8ue170006ERS7_RSA_SD_, symObjAddr: 0x15270, symBinAddr: 0x10001FF20, symSize: 0x44 }
  - { offsetInCU: 0x1CDD5, offset: 0x4CEE8, size: 0x8, addend: 0x0, symName: __ZNKSt3__116reverse_iteratorIPNS_12basic_stringIcNS_11char_traitsIcEENS_9allocatorIcEEEEEdeB8ue170006Ev, symObjAddr: 0x15320, symBinAddr: 0x10001FFD0, symSize: 0x28 }
  - { offsetInCU: 0x1CE08, offset: 0x4CF1B, size: 0x8, addend: 0x0, symName: __ZNSt3__116reverse_iteratorIPNS_12basic_stringIcNS_11char_traitsIcEENS_9allocatorIcEEEEEppB8ue170006Ev, symObjAddr: 0x15348, symBinAddr: 0x10001FFF8, symSize: 0x20 }
  - { offsetInCU: 0x1CE2D, offset: 0x4CF40, size: 0x8, addend: 0x0, symName: __ZNSt3__128__exception_guard_exceptionsINS_29_AllocatorDestroyRangeReverseINS_9allocatorINS_12basic_stringIcNS_11char_traitsIcEENS2_IcEEEEEENS_16reverse_iteratorIPS7_EEEEE10__completeB8ue170006Ev, symObjAddr: 0x15368, symBinAddr: 0x100020018, symSize: 0x1C }
  - { offsetInCU: 0x1CE52, offset: 0x4CF65, size: 0x8, addend: 0x0, symName: __ZNSt3__128__exception_guard_exceptionsINS_29_AllocatorDestroyRangeReverseINS_9allocatorINS_12basic_stringIcNS_11char_traitsIcEENS2_IcEEEEEENS_16reverse_iteratorIPS7_EEEEED1B8ue170006Ev, symObjAddr: 0x15384, symBinAddr: 0x100020034, symSize: 0x2C }
  - { offsetInCU: 0x1CE7B, offset: 0x4CF8E, size: 0x8, addend: 0x0, symName: __ZNSt3__128__exception_guard_exceptionsINS_29_AllocatorDestroyRangeReverseINS_9allocatorINS_12basic_stringIcNS_11char_traitsIcEENS2_IcEEEEEENS_16reverse_iteratorIPS7_EEEEEC1B8ue170006ESC_, symObjAddr: 0x153B0, symBinAddr: 0x100020060, symSize: 0x34 }
  - { offsetInCU: 0x1CEB3, offset: 0x4CFC6, size: 0x8, addend: 0x0, symName: __ZNSt3__128__exception_guard_exceptionsINS_29_AllocatorDestroyRangeReverseINS_9allocatorINS_12basic_stringIcNS_11char_traitsIcEENS2_IcEEEEEENS_16reverse_iteratorIPS7_EEEEEC2B8ue170006ESC_, symObjAddr: 0x153E4, symBinAddr: 0x100020094, symSize: 0x30 }
  - { offsetInCU: 0x1CEEB, offset: 0x4CFFE, size: 0x8, addend: 0x0, symName: __ZNSt3__129_AllocatorDestroyRangeReverseINS_9allocatorINS_12basic_stringIcNS_11char_traitsIcEENS1_IcEEEEEENS_16reverse_iteratorIPS6_EEEC2B8ue170006ERS7_RSA_SD_, symObjAddr: 0x15414, symBinAddr: 0x1000200C4, symSize: 0x38 }
  - { offsetInCU: 0x1CF46, offset: 0x4D059, size: 0x8, addend: 0x0, symName: __ZNSt3__119__to_address_helperINS_16reverse_iteratorIPNS_12basic_stringIcNS_11char_traitsIcEENS_9allocatorIcEEEEEEvE6__callB8ue170006ERKS9_, symObjAddr: 0x1544C, symBinAddr: 0x1000200FC, symSize: 0x4C }
  - { offsetInCU: 0x1CF69, offset: 0x4D07C, size: 0x8, addend: 0x0, symName: __ZNKSt3__116reverse_iteratorIPNS_12basic_stringIcNS_11char_traitsIcEENS_9allocatorIcEEEEEptB8ue170006Ev, symObjAddr: 0x15498, symBinAddr: 0x100020148, symSize: 0x24 }
  - { offsetInCU: 0x1CF8D, offset: 0x4D0A0, size: 0x8, addend: 0x0, symName: __ZNSt3__128__exception_guard_exceptionsINS_29_AllocatorDestroyRangeReverseINS_9allocatorINS_12basic_stringIcNS_11char_traitsIcEENS2_IcEEEEEENS_16reverse_iteratorIPS7_EEEEED2B8ue170006Ev, symObjAddr: 0x154BC, symBinAddr: 0x10002016C, symSize: 0x48 }
  - { offsetInCU: 0x1CFB6, offset: 0x4D0C9, size: 0x8, addend: 0x0, symName: __ZNKSt3__129_AllocatorDestroyRangeReverseINS_9allocatorINS_12basic_stringIcNS_11char_traitsIcEENS1_IcEEEEEENS_16reverse_iteratorIPS6_EEEclB8ue170006Ev, symObjAddr: 0x15504, symBinAddr: 0x1000201B4, symSize: 0xB4 }
  - { offsetInCU: 0x1CFDB, offset: 0x4D0EE, size: 0x8, addend: 0x0, symName: __ZNSt3__116reverse_iteratorINS0_IPNS_12basic_stringIcNS_11char_traitsIcEENS_9allocatorIcEEEEEEEC1B8ue170006ES8_, symObjAddr: 0x15628, symBinAddr: 0x1000202D8, symSize: 0x3C }
  - { offsetInCU: 0x1D012, offset: 0x4D125, size: 0x8, addend: 0x0, symName: __ZNSt3__116reverse_iteratorINS0_IPNS_12basic_stringIcNS_11char_traitsIcEENS_9allocatorIcEEEEEEEppB8ue170006Ev, symObjAddr: 0x156E8, symBinAddr: 0x100020398, symSize: 0x30 }
  - { offsetInCU: 0x1D036, offset: 0x4D149, size: 0x8, addend: 0x0, symName: __ZNKSt3__116reverse_iteratorINS0_IPNS_12basic_stringIcNS_11char_traitsIcEENS_9allocatorIcEEEEEEE4baseB8ue170006Ev, symObjAddr: 0x15718, symBinAddr: 0x1000203C8, symSize: 0x24 }
  - { offsetInCU: 0x1D060, offset: 0x4D173, size: 0x8, addend: 0x0, symName: __ZNSt3__119__to_address_helperINS_16reverse_iteratorINS1_IPNS_12basic_stringIcNS_11char_traitsIcEENS_9allocatorIcEEEEEEEEvE6__callB8ue170006ERKSA_, symObjAddr: 0x1573C, symBinAddr: 0x1000203EC, symSize: 0x4C }
  - { offsetInCU: 0x1D083, offset: 0x4D196, size: 0x8, addend: 0x0, symName: __ZNKSt3__116reverse_iteratorINS0_IPNS_12basic_stringIcNS_11char_traitsIcEENS_9allocatorIcEEEEEEEptB8ue170006Ev, symObjAddr: 0x15788, symBinAddr: 0x100020438, symSize: 0x24 }
  - { offsetInCU: 0x1D0A7, offset: 0x4D1BA, size: 0x8, addend: 0x0, symName: __ZNKSt3__116reverse_iteratorINS0_IPNS_12basic_stringIcNS_11char_traitsIcEENS_9allocatorIcEEEEEEEdeB8ue170006Ev, symObjAddr: 0x157AC, symBinAddr: 0x10002045C, symSize: 0x34 }
  - { offsetInCU: 0x1D0D9, offset: 0x4D1EC, size: 0x8, addend: 0x0, symName: __ZNSt3__116reverse_iteratorIPNS_12basic_stringIcNS_11char_traitsIcEENS_9allocatorIcEEEEEmmB8ue170006Ev, symObjAddr: 0x157E0, symBinAddr: 0x100020490, symSize: 0x20 }
  - { offsetInCU: 0x1D0FE, offset: 0x4D211, size: 0x8, addend: 0x0, symName: __ZNSt3__116reverse_iteratorINS0_IPNS_12basic_stringIcNS_11char_traitsIcEENS_9allocatorIcEEEEEEEC2B8ue170006ES8_, symObjAddr: 0x15800, symBinAddr: 0x1000204B0, symSize: 0x2C }
  - { offsetInCU: 0x1D135, offset: 0x4D248, size: 0x8, addend: 0x0, symName: __ZNSt3__116reverse_iteratorIPNS_12basic_stringIcNS_11char_traitsIcEENS_9allocatorIcEEEEEC2B8ue170006ES7_, symObjAddr: 0x1582C, symBinAddr: 0x1000204DC, symSize: 0x28 }
  - { offsetInCU: 0x1D16C, offset: 0x4D27F, size: 0x8, addend: 0x0, symName: __ZNSt3__114__split_bufferINS_12basic_stringIcNS_11char_traitsIcEENS_9allocatorIcEEEERNS4_IS6_EEED2Ev, symObjAddr: 0x15854, symBinAddr: 0x100020504, symSize: 0x80 }
  - { offsetInCU: 0x1D197, offset: 0x4D2AA, size: 0x8, addend: 0x0, symName: __ZNSt3__114__split_bufferINS_12basic_stringIcNS_11char_traitsIcEENS_9allocatorIcEEEERNS4_IS6_EEE5clearB8ue170006Ev, symObjAddr: 0x158D4, symBinAddr: 0x100020584, symSize: 0x28 }
  - { offsetInCU: 0x1D1BB, offset: 0x4D2CE, size: 0x8, addend: 0x0, symName: __ZNKSt3__114__split_bufferINS_12basic_stringIcNS_11char_traitsIcEENS_9allocatorIcEEEERNS4_IS6_EEE8capacityB8ue170006Ev, symObjAddr: 0x158FC, symBinAddr: 0x1000205AC, symSize: 0x40 }
  - { offsetInCU: 0x1D1DF, offset: 0x4D2F2, size: 0x8, addend: 0x0, symName: __ZNSt3__114__split_bufferINS_12basic_stringIcNS_11char_traitsIcEENS_9allocatorIcEEEERNS4_IS6_EEE17__destruct_at_endB8ue170006EPS6_, symObjAddr: 0x1593C, symBinAddr: 0x1000205EC, symSize: 0x2C }
  - { offsetInCU: 0x1D211, offset: 0x4D324, size: 0x8, addend: 0x0, symName: __ZNSt3__114__split_bufferINS_12basic_stringIcNS_11char_traitsIcEENS_9allocatorIcEEEERNS4_IS6_EEE17__destruct_at_endB8ue170006EPS6_NS_17integral_constantIbLb0EEE, symObjAddr: 0x15968, symBinAddr: 0x100020618, symSize: 0x94 }
  - { offsetInCU: 0x1D251, offset: 0x4D364, size: 0x8, addend: 0x0, symName: __ZNKSt3__114__split_bufferINS_12basic_stringIcNS_11char_traitsIcEENS_9allocatorIcEEEERNS4_IS6_EEE9__end_capB8ue170006Ev, symObjAddr: 0x159FC, symBinAddr: 0x1000206AC, symSize: 0x28 }
  - { offsetInCU: 0x1D275, offset: 0x4D388, size: 0x8, addend: 0x0, symName: __ZNKSt3__117__compressed_pairIPNS_12basic_stringIcNS_11char_traitsIcEENS_9allocatorIcEEEERNS4_IS6_EEE5firstB8ue170006Ev, symObjAddr: 0x15A24, symBinAddr: 0x1000206D4, symSize: 0x24 }
  - { offsetInCU: 0x1D299, offset: 0x4D3AC, size: 0x8, addend: 0x0, symName: __ZNSt3__111char_traitsIcE2eqEcc, symObjAddr: 0x15A48, symBinAddr: 0x1000206F8, symSize: 0x28 }
  - { offsetInCU: 0x1D2CA, offset: 0x4D3DD, size: 0x8, addend: 0x0, symName: __ZNSt3__111char_traitsIcE4findB8ue170006EPKcmRS2_, symObjAddr: 0x15CF0, symBinAddr: 0x100020958, symSize: 0x84 }
  - { offsetInCU: 0x1D309, offset: 0x4D41C, size: 0x8, addend: 0x0, symName: __ZNSt3__14listINS_12basic_stringIcNS_11char_traitsIcEENS_9allocatorIcEEEENS4_IS6_EEEC2B8ue170006Ev, symObjAddr: 0x15E58, symBinAddr: 0x100020A9C, symSize: 0x2C }
  - { offsetInCU: 0x1D332, offset: 0x4D445, size: 0x8, addend: 0x0, symName: __ZNSt3__110__list_impINS_12basic_stringIcNS_11char_traitsIcEENS_9allocatorIcEEEENS4_IS6_EEEC2Ev, symObjAddr: 0x15E84, symBinAddr: 0x100020AC8, symSize: 0x44 }
  - { offsetInCU: 0x1D35D, offset: 0x4D470, size: 0x8, addend: 0x0, symName: __ZNSt3__116__list_node_baseINS_12basic_stringIcNS_11char_traitsIcEENS_9allocatorIcEEEEPvEC1B8ue170006Ev, symObjAddr: 0x15EC8, symBinAddr: 0x100020B0C, symSize: 0x2C }
  - { offsetInCU: 0x1D38B, offset: 0x4D49E, size: 0x8, addend: 0x0, symName: __ZNSt3__117__compressed_pairImNS_9allocatorINS_11__list_nodeINS_12basic_stringIcNS_11char_traitsIcEENS1_IcEEEEPvEEEEEC1B8ue170006IiNS_18__default_init_tagEEEOT_OT0_, symObjAddr: 0x15EF4, symBinAddr: 0x100020B38, symSize: 0x3C }
  - { offsetInCU: 0x1D3E2, offset: 0x4D4F5, size: 0x8, addend: 0x0, symName: __ZNSt3__116__list_node_baseINS_12basic_stringIcNS_11char_traitsIcEENS_9allocatorIcEEEEPvEC2B8ue170006Ev, symObjAddr: 0x15F30, symBinAddr: 0x100020B74, symSize: 0x4C }
  - { offsetInCU: 0x1D40B, offset: 0x4D51E, size: 0x8, addend: 0x0, symName: __ZNSt3__117__compressed_pairImNS_9allocatorINS_11__list_nodeINS_12basic_stringIcNS_11char_traitsIcEENS1_IcEEEEPvEEEEEC2B8ue170006IiNS_18__default_init_tagEEEOT_OT0_, symObjAddr: 0x15F7C, symBinAddr: 0x100020BC0, symSize: 0x40 }
  - { offsetInCU: 0x1D462, offset: 0x4D575, size: 0x8, addend: 0x0, symName: __ZNSt3__122__compressed_pair_elemINS_9allocatorINS_11__list_nodeINS_12basic_stringIcNS_11char_traitsIcEENS1_IcEEEEPvEEEELi1ELb1EEC2B8ue170006ENS_18__default_init_tagE, symObjAddr: 0x15FE0, symBinAddr: 0x100020C00, symSize: 0x2C }
  - { offsetInCU: 0x1D496, offset: 0x4D5A9, size: 0x8, addend: 0x0, symName: __ZNSt3__19allocatorINS_11__list_nodeINS_12basic_stringIcNS_11char_traitsIcEENS0_IcEEEEPvEEEC2B8ue170006Ev, symObjAddr: 0x1600C, symBinAddr: 0x100020C2C, symSize: 0x2C }
  - { offsetInCU: 0x1D4BF, offset: 0x4D5D2, size: 0x8, addend: 0x0, symName: __ZNSt3__116__non_trivial_ifILb1ENS_9allocatorINS_11__list_nodeINS_12basic_stringIcNS_11char_traitsIcEENS1_IcEEEEPvEEEEEC2B8ue170006Ev, symObjAddr: 0x16038, symBinAddr: 0x100020C58, symSize: 0x14 }
  - { offsetInCU: 0x1D4E8, offset: 0x4D5FB, size: 0x8, addend: 0x0, symName: __ZNSt3__114__map_iteratorINS_15__tree_iteratorINS_12__value_typeINS_12basic_stringIcNS_11char_traitsIcEENS_9allocatorIcEEEE7ChannelEEPNS_11__tree_nodeISA_PvEElEEEC2B8ue170006Ev, symObjAddr: 0x16134, symBinAddr: 0x100020C6C, symSize: 0x2C }
  - { offsetInCU: 0x1D511, offset: 0x4D624, size: 0x8, addend: 0x0, symName: __ZNSt3__115__tree_iteratorINS_12__value_typeINS_12basic_stringIcNS_11char_traitsIcEENS_9allocatorIcEEEE7ChannelEEPNS_11__tree_nodeIS9_PvEElEC1B8ue170006Ev, symObjAddr: 0x16160, symBinAddr: 0x100020C98, symSize: 0x2C }
  - { offsetInCU: 0x1D53A, offset: 0x4D64D, size: 0x8, addend: 0x0, symName: __ZNSt3__115__tree_iteratorINS_12__value_typeINS_12basic_stringIcNS_11char_traitsIcEENS_9allocatorIcEEEE7ChannelEEPNS_11__tree_nodeIS9_PvEElEC2B8ue170006Ev, symObjAddr: 0x1618C, symBinAddr: 0x100020CC4, symSize: 0x14 }
  - { offsetInCU: 0x1D563, offset: 0x4D676, size: 0x8, addend: 0x0, symName: __ZNKSt3__18ios_base3eofB8ue170006Ev, symObjAddr: 0x161A0, symBinAddr: 0x100020CD8, symSize: 0x24 }
  - { offsetInCU: 0x1D58A, offset: 0x4D69D, size: 0x8, addend: 0x0, symName: __ZNSt3__14listINS_12basic_stringIcNS_11char_traitsIcEENS_9allocatorIcEEEENS4_IS6_EEE15__allocate_nodeB8ue170006ERNS4_INS_11__list_nodeIS6_PvEEEE, symObjAddr: 0x161C4, symBinAddr: 0x100020CFC, symSize: 0x70 }
  - { offsetInCU: 0x1D5CD, offset: 0x4D6E0, size: 0x8, addend: 0x0, symName: __ZNSt3__116allocator_traitsINS_9allocatorINS_11__list_nodeINS_12basic_stringIcNS_11char_traitsIcEENS1_IcEEEEPvEEEEE9constructB8ue170006IS7_JRKS7_EvEEvRSA_PT_DpOT0_, symObjAddr: 0x16234, symBinAddr: 0x100020D6C, symSize: 0x34 }
  - { offsetInCU: 0x1D624, offset: 0x4D737, size: 0x8, addend: 0x0, symName: __ZNKSt3__110unique_ptrINS_11__list_nodeINS_12basic_stringIcNS_11char_traitsIcEENS_9allocatorIcEEEEPvEENS_22__allocator_destructorINS5_IS9_EEEEEptB8ue170006Ev, symObjAddr: 0x16268, symBinAddr: 0x100020DA0, symSize: 0x28 }
  - { offsetInCU: 0x1D648, offset: 0x4D75B, size: 0x8, addend: 0x0, symName: __ZNSt3__14listINS_12basic_stringIcNS_11char_traitsIcEENS_9allocatorIcEEEENS4_IS6_EEE20__link_nodes_at_backEPNS_16__list_node_baseIS6_PvEESC_, symObjAddr: 0x16290, symBinAddr: 0x100020DC8, symSize: 0x60 }
  - { offsetInCU: 0x1D68D, offset: 0x4D7A0, size: 0x8, addend: 0x0, symName: __ZNKSt3__110unique_ptrINS_11__list_nodeINS_12basic_stringIcNS_11char_traitsIcEENS_9allocatorIcEEEEPvEENS_22__allocator_destructorINS5_IS9_EEEEE3getB8ue170006Ev, symObjAddr: 0x162F0, symBinAddr: 0x100020E28, symSize: 0x28 }
  - { offsetInCU: 0x1D6B1, offset: 0x4D7C4, size: 0x8, addend: 0x0, symName: __ZNSt3__111__list_nodeINS_12basic_stringIcNS_11char_traitsIcEENS_9allocatorIcEEEEPvE9__as_linkB8ue170006Ev, symObjAddr: 0x16318, symBinAddr: 0x100020E50, symSize: 0x24 }
  - { offsetInCU: 0x1D6D5, offset: 0x4D7E8, size: 0x8, addend: 0x0, symName: __ZNSt3__110unique_ptrINS_11__list_nodeINS_12basic_stringIcNS_11char_traitsIcEENS_9allocatorIcEEEEPvEENS_22__allocator_destructorINS5_IS9_EEEEE7releaseB8ue170006Ev, symObjAddr: 0x1633C, symBinAddr: 0x100020E74, symSize: 0x44 }
  - { offsetInCU: 0x1D709, offset: 0x4D81C, size: 0x8, addend: 0x0, symName: __ZNSt3__110unique_ptrINS_11__list_nodeINS_12basic_stringIcNS_11char_traitsIcEENS_9allocatorIcEEEEPvEENS_22__allocator_destructorINS5_IS9_EEEEED1B8ue170006Ev, symObjAddr: 0x16380, symBinAddr: 0x100020EB8, symSize: 0x2C }
  - { offsetInCU: 0x1D732, offset: 0x4D845, size: 0x8, addend: 0x0, symName: __ZNSt3__116allocator_traitsINS_9allocatorINS_11__list_nodeINS_12basic_stringIcNS_11char_traitsIcEENS1_IcEEEEPvEEEEE8allocateB8ue170006ERSA_m, symObjAddr: 0x163AC, symBinAddr: 0x100020EE4, symSize: 0x2C }
  - { offsetInCU: 0x1D765, offset: 0x4D878, size: 0x8, addend: 0x0, symName: __ZNSt3__122__allocator_destructorINS_9allocatorINS_11__list_nodeINS_12basic_stringIcNS_11char_traitsIcEENS1_IcEEEEPvEEEEEC1B8ue170006ERSA_m, symObjAddr: 0x163D8, symBinAddr: 0x100020F10, symSize: 0x3C }
  - { offsetInCU: 0x1D7AF, offset: 0x4D8C2, size: 0x8, addend: 0x0, symName: __ZNSt3__110unique_ptrINS_11__list_nodeINS_12basic_stringIcNS_11char_traitsIcEENS_9allocatorIcEEEEPvEENS_22__allocator_destructorINS5_IS9_EEEEEC1B8ue170006ILb1EvEEPS9_NS_16__dependent_typeINS_27__unique_ptr_deleter_sfinaeISC_EEXT_EE20__good_rval_ref_typeE, symObjAddr: 0x16414, symBinAddr: 0x100020F4C, symSize: 0x3C }
  - { offsetInCU: 0x1D7FF, offset: 0x4D912, size: 0x8, addend: 0x0, symName: __ZNSt3__19allocatorINS_11__list_nodeINS_12basic_stringIcNS_11char_traitsIcEENS0_IcEEEEPvEEE8allocateB8ue170006Em, symObjAddr: 0x16450, symBinAddr: 0x100020F88, symSize: 0x8C }
  - { offsetInCU: 0x1D83B, offset: 0x4D94E, size: 0x8, addend: 0x0, symName: __ZNSt3__116allocator_traitsINS_9allocatorINS_11__list_nodeINS_12basic_stringIcNS_11char_traitsIcEENS1_IcEEEEPvEEEEE8max_sizeB8ue170006ISA_vEEmRKSA_, symObjAddr: 0x164DC, symBinAddr: 0x100021014, symSize: 0x24 }
  - { offsetInCU: 0x1D869, offset: 0x4D97C, size: 0x8, addend: 0x0, symName: __ZNKSt3__19allocatorINS_11__list_nodeINS_12basic_stringIcNS_11char_traitsIcEENS0_IcEEEEPvEEE8max_sizeB8ue170006Ev, symObjAddr: 0x16500, symBinAddr: 0x100021038, symSize: 0x18 }
  - { offsetInCU: 0x1D88E, offset: 0x4D9A1, size: 0x8, addend: 0x0, symName: __ZNSt3__122__allocator_destructorINS_9allocatorINS_11__list_nodeINS_12basic_stringIcNS_11char_traitsIcEENS1_IcEEEEPvEEEEEC2B8ue170006ERSA_m, symObjAddr: 0x16518, symBinAddr: 0x100021050, symSize: 0x2C }
  - { offsetInCU: 0x1D8D3, offset: 0x4D9E6, size: 0x8, addend: 0x0, symName: __ZNSt3__110unique_ptrINS_11__list_nodeINS_12basic_stringIcNS_11char_traitsIcEENS_9allocatorIcEEEEPvEENS_22__allocator_destructorINS5_IS9_EEEEEC2B8ue170006ILb1EvEEPS9_NS_16__dependent_typeINS_27__unique_ptr_deleter_sfinaeISC_EEXT_EE20__good_rval_ref_typeE, symObjAddr: 0x16544, symBinAddr: 0x10002107C, symSize: 0x5C }
  - { offsetInCU: 0x1D923, offset: 0x4DA36, size: 0x8, addend: 0x0, symName: __ZNSt3__117__compressed_pairIPNS_11__list_nodeINS_12basic_stringIcNS_11char_traitsIcEENS_9allocatorIcEEEEPvEENS_22__allocator_destructorINS5_IS9_EEEEEC1B8ue170006IRSA_SD_EEOT_OT0_, symObjAddr: 0x165A0, symBinAddr: 0x1000210D8, symSize: 0x3C }
  - { offsetInCU: 0x1D97A, offset: 0x4DA8D, size: 0x8, addend: 0x0, symName: __ZNSt3__117__compressed_pairIPNS_11__list_nodeINS_12basic_stringIcNS_11char_traitsIcEENS_9allocatorIcEEEEPvEENS_22__allocator_destructorINS5_IS9_EEEEEC2B8ue170006IRSA_SD_EEOT_OT0_, symObjAddr: 0x165DC, symBinAddr: 0x100021114, symSize: 0x48 }
  - { offsetInCU: 0x1D9D1, offset: 0x4DAE4, size: 0x8, addend: 0x0, symName: __ZNSt3__122__compressed_pair_elemIPNS_11__list_nodeINS_12basic_stringIcNS_11char_traitsIcEENS_9allocatorIcEEEEPvEELi0ELb0EEC2B8ue170006IRSA_vEEOT_, symObjAddr: 0x16624, symBinAddr: 0x10002115C, symSize: 0x24 }
  - { offsetInCU: 0x1DA12, offset: 0x4DB25, size: 0x8, addend: 0x0, symName: __ZNSt3__122__compressed_pair_elemINS_22__allocator_destructorINS_9allocatorINS_11__list_nodeINS_12basic_stringIcNS_11char_traitsIcEENS2_IcEEEEPvEEEEEELi1ELb0EEC2B8ue170006ISC_vEEOT_, symObjAddr: 0x16648, symBinAddr: 0x100021180, symSize: 0x24 }
  - { offsetInCU: 0x1DA53, offset: 0x4DB66, size: 0x8, addend: 0x0, symName: __ZNSt3__19allocatorINS_11__list_nodeINS_12basic_stringIcNS_11char_traitsIcEENS0_IcEEEEPvEEE9constructB8ue170006IS6_JRKS6_EEEvPT_DpOT0_, symObjAddr: 0x1666C, symBinAddr: 0x1000211A4, symSize: 0x30 }
  - { offsetInCU: 0x1DAA7, offset: 0x4DBBA, size: 0x8, addend: 0x0, symName: __ZNKSt3__117__compressed_pairIPNS_11__list_nodeINS_12basic_stringIcNS_11char_traitsIcEENS_9allocatorIcEEEEPvEENS_22__allocator_destructorINS5_IS9_EEEEE5firstB8ue170006Ev, symObjAddr: 0x1669C, symBinAddr: 0x1000211D4, symSize: 0x24 }
  - { offsetInCU: 0x1DACB, offset: 0x4DBDE, size: 0x8, addend: 0x0, symName: __ZNKSt3__122__compressed_pair_elemIPNS_11__list_nodeINS_12basic_stringIcNS_11char_traitsIcEENS_9allocatorIcEEEEPvEELi0ELb0EE5__getB8ue170006Ev, symObjAddr: 0x166C0, symBinAddr: 0x1000211F8, symSize: 0x14 }
  - { offsetInCU: 0x1DAF0, offset: 0x4DC03, size: 0x8, addend: 0x0, symName: __ZNSt3__117__compressed_pairIPNS_11__list_nodeINS_12basic_stringIcNS_11char_traitsIcEENS_9allocatorIcEEEEPvEENS_22__allocator_destructorINS5_IS9_EEEEE5firstB8ue170006Ev, symObjAddr: 0x166D4, symBinAddr: 0x10002120C, symSize: 0x24 }
  - { offsetInCU: 0x1DB14, offset: 0x4DC27, size: 0x8, addend: 0x0, symName: __ZNSt3__122__compressed_pair_elemIPNS_11__list_nodeINS_12basic_stringIcNS_11char_traitsIcEENS_9allocatorIcEEEEPvEELi0ELb0EE5__getB8ue170006Ev, symObjAddr: 0x166F8, symBinAddr: 0x100021230, symSize: 0x14 }
  - { offsetInCU: 0x1DB39, offset: 0x4DC4C, size: 0x8, addend: 0x0, symName: __ZNSt3__110unique_ptrINS_11__list_nodeINS_12basic_stringIcNS_11char_traitsIcEENS_9allocatorIcEEEEPvEENS_22__allocator_destructorINS5_IS9_EEEEED2B8ue170006Ev, symObjAddr: 0x1670C, symBinAddr: 0x100021244, symSize: 0x30 }
  - { offsetInCU: 0x1DB62, offset: 0x4DC75, size: 0x8, addend: 0x0, symName: __ZNSt3__110unique_ptrINS_11__list_nodeINS_12basic_stringIcNS_11char_traitsIcEENS_9allocatorIcEEEEPvEENS_22__allocator_destructorINS5_IS9_EEEEE5resetB8ue170006EPS9_, symObjAddr: 0x1673C, symBinAddr: 0x100021274, symSize: 0x78 }
  - { offsetInCU: 0x1DBA5, offset: 0x4DCB8, size: 0x8, addend: 0x0, symName: __ZNSt3__117__compressed_pairIPNS_11__list_nodeINS_12basic_stringIcNS_11char_traitsIcEENS_9allocatorIcEEEEPvEENS_22__allocator_destructorINS5_IS9_EEEEE6secondB8ue170006Ev, symObjAddr: 0x167B4, symBinAddr: 0x1000212EC, symSize: 0x28 }
  - { offsetInCU: 0x1DBC9, offset: 0x4DCDC, size: 0x8, addend: 0x0, symName: __ZNSt3__122__allocator_destructorINS_9allocatorINS_11__list_nodeINS_12basic_stringIcNS_11char_traitsIcEENS1_IcEEEEPvEEEEEclB8ue170006EPS9_, symObjAddr: 0x167DC, symBinAddr: 0x100021314, symSize: 0x34 }
  - { offsetInCU: 0x1DBFB, offset: 0x4DD0E, size: 0x8, addend: 0x0, symName: __ZNSt3__122__compressed_pair_elemINS_22__allocator_destructorINS_9allocatorINS_11__list_nodeINS_12basic_stringIcNS_11char_traitsIcEENS2_IcEEEEPvEEEEEELi1ELb0EE5__getB8ue170006Ev, symObjAddr: 0x16810, symBinAddr: 0x100021348, symSize: 0x14 }
  - { offsetInCU: 0x1DC20, offset: 0x4DD33, size: 0x8, addend: 0x0, symName: __ZNSt3__16__treeINS_12__value_typeINS_12basic_stringIcNS_11char_traitsIcEENS_9allocatorIcEEEE7ChannelEENS_19__map_value_compareIS7_S9_NS_4lessIS7_EELb1EEENS5_IS9_EEE4findIS7_EENS_15__tree_iteratorIS9_PNS_11__tree_nodeIS9_PvEElEERKT_, symObjAddr: 0x16880, symBinAddr: 0x10002135C, symSize: 0xF8 }
  - { offsetInCU: 0x1DC6F, offset: 0x4DD82, size: 0x8, addend: 0x0, symName: __ZNSt3__16__treeINS_12__value_typeINS_12basic_stringIcNS_11char_traitsIcEENS_9allocatorIcEEEE7ChannelEENS_19__map_value_compareIS7_S9_NS_4lessIS7_EELb1EEENS5_IS9_EEE13__lower_boundIS7_EENS_15__tree_iteratorIS9_PNS_11__tree_nodeIS9_PvEElEERKT_SL_PNS_15__tree_end_nodeIPNS_16__tree_node_baseISJ_EEEE, symObjAddr: 0x169AC, symBinAddr: 0x100021454, symSize: 0xA4 }
  - { offsetInCU: 0x1DCCC, offset: 0x4DDDF, size: 0x8, addend: 0x0, symName: __ZNSt3__16__treeINS_12__value_typeINS_12basic_stringIcNS_11char_traitsIcEENS_9allocatorIcEEEE7ChannelEENS_19__map_value_compareIS7_S9_NS_4lessIS7_EELb1EEENS5_IS9_EEE10value_compB8ue170006Ev, symObjAddr: 0x16B0C, symBinAddr: 0x1000214F8, symSize: 0x28 }
  - { offsetInCU: 0x1DCF0, offset: 0x4DE03, size: 0x8, addend: 0x0, symName: __ZNKSt3__119__map_value_compareINS_12basic_stringIcNS_11char_traitsIcEENS_9allocatorIcEEEENS_12__value_typeIS6_7ChannelEENS_4lessIS6_EELb1EEclB8ue170006ERKS6_RKS9_, symObjAddr: 0x16B34, symBinAddr: 0x100021520, symSize: 0x50 }
  - { offsetInCU: 0x1DD32, offset: 0x4DE45, size: 0x8, addend: 0x0, symName: __ZNKSt3__115__tree_iteratorINS_12__value_typeINS_12basic_stringIcNS_11char_traitsIcEENS_9allocatorIcEEEE7ChannelEEPNS_11__tree_nodeIS9_PvEElEdeB8ue170006Ev, symObjAddr: 0x16B84, symBinAddr: 0x100021570, symSize: 0x28 }
  - { offsetInCU: 0x1DD56, offset: 0x4DE69, size: 0x8, addend: 0x0, symName: __ZNKSt3__119__map_value_compareINS_12basic_stringIcNS_11char_traitsIcEENS_9allocatorIcEEEENS_12__value_typeIS6_7ChannelEENS_4lessIS6_EELb1EEclB8ue170006ERKS9_RKS6_, symObjAddr: 0x16BAC, symBinAddr: 0x100021598, symSize: 0x48 }
  - { offsetInCU: 0x1DD98, offset: 0x4DEAB, size: 0x8, addend: 0x0, symName: __ZNKSt3__112__value_typeINS_12basic_stringIcNS_11char_traitsIcEENS_9allocatorIcEEEE7ChannelE11__get_valueB8ue170006Ev, symObjAddr: 0x16C28, symBinAddr: 0x1000215E0, symSize: 0x14 }
  - { offsetInCU: 0x1DDBD, offset: 0x4DED0, size: 0x8, addend: 0x0, symName: __ZNSt3__117__compressed_pairImNS_19__map_value_compareINS_12basic_stringIcNS_11char_traitsIcEENS_9allocatorIcEEEENS_12__value_typeIS7_7ChannelEENS_4lessIS7_EELb1EEEE6secondB8ue170006Ev, symObjAddr: 0x16D00, symBinAddr: 0x1000215F4, symSize: 0x24 }
  - { offsetInCU: 0x1DDE1, offset: 0x4DEF4, size: 0x8, addend: 0x0, symName: __ZNSt3__122__compressed_pair_elemINS_19__map_value_compareINS_12basic_stringIcNS_11char_traitsIcEENS_9allocatorIcEEEENS_12__value_typeIS7_7ChannelEENS_4lessIS7_EELb1EEELi1ELb1EE5__getB8ue170006Ev, symObjAddr: 0x16D24, symBinAddr: 0x100021618, symSize: 0x14 }
  - { offsetInCU: 0x1DE06, offset: 0x4DF19, size: 0x8, addend: 0x0, symName: __ZNSt3__16__treeINS_12__value_typeINS_12basic_stringIcNS_11char_traitsIcEENS_9allocatorIcEEEE7ChannelEENS_19__map_value_compareIS7_S9_NS_4lessIS7_EELb1EEENS5_IS9_EEE12__find_equalIS7_EERPNS_16__tree_node_baseIPvEERPNS_15__tree_end_nodeISK_EERKT_, symObjAddr: 0x16D70, symBinAddr: 0x10002162C, symSize: 0x184 }
  - { offsetInCU: 0x1DE74, offset: 0x4DF87, size: 0x8, addend: 0x0, symName: __ZNSt3__13mapINS_12basic_stringIcNS_11char_traitsIcEENS_9allocatorIcEEEE7ChannelNS_4lessIS6_EENS4_INS_4pairIKS6_S7_EEEEE25__construct_node_with_keyERSB_, symObjAddr: 0x16EF4, symBinAddr: 0x1000217B0, symSize: 0x154 }
  - { offsetInCU: 0x1DECB, offset: 0x4DFDE, size: 0x8, addend: 0x0, symName: __ZNSt3__16__treeINS_12__value_typeINS_12basic_stringIcNS_11char_traitsIcEENS_9allocatorIcEEEE7ChannelEENS_19__map_value_compareIS7_S9_NS_4lessIS7_EELb1EEENS5_IS9_EEE16__insert_node_atEPNS_15__tree_end_nodeIPNS_16__tree_node_baseIPvEEEERSK_SK_, symObjAddr: 0x17048, symBinAddr: 0x100021904, symSize: 0xCC }
  - { offsetInCU: 0x1DF1F, offset: 0x4E032, size: 0x8, addend: 0x0, symName: __ZNKSt3__110unique_ptrINS_11__tree_nodeINS_12__value_typeINS_12basic_stringIcNS_11char_traitsIcEENS_9allocatorIcEEEE7ChannelEEPvEENS_21__map_node_destructorINS6_ISC_EEEEE3getB8ue170006Ev, symObjAddr: 0x17114, symBinAddr: 0x1000219D0, symSize: 0x28 }
  - { offsetInCU: 0x1DF43, offset: 0x4E056, size: 0x8, addend: 0x0, symName: __ZNSt3__110unique_ptrINS_11__tree_nodeINS_12__value_typeINS_12basic_stringIcNS_11char_traitsIcEENS_9allocatorIcEEEE7ChannelEEPvEENS_21__map_node_destructorINS6_ISC_EEEEE7releaseB8ue170006Ev, symObjAddr: 0x1713C, symBinAddr: 0x1000219F8, symSize: 0x44 }
  - { offsetInCU: 0x1DF77, offset: 0x4E08A, size: 0x8, addend: 0x0, symName: __ZNSt3__110unique_ptrINS_11__tree_nodeINS_12__value_typeINS_12basic_stringIcNS_11char_traitsIcEENS_9allocatorIcEEEE7ChannelEEPvEENS_21__map_node_destructorINS6_ISC_EEEEED1B8ue170006Ev, symObjAddr: 0x17180, symBinAddr: 0x100021A3C, symSize: 0x2C }
  - { offsetInCU: 0x1DFA0, offset: 0x4E0B3, size: 0x8, addend: 0x0, symName: __ZNKSt3__16__treeINS_12__value_typeINS_12basic_stringIcNS_11char_traitsIcEENS_9allocatorIcEEEE7ChannelEENS_19__map_value_compareIS7_S9_NS_4lessIS7_EELb1EEENS5_IS9_EEE10__root_ptrB8ue170006Ev, symObjAddr: 0x171C0, symBinAddr: 0x100021A68, symSize: 0x24 }
  - { offsetInCU: 0x1DFC4, offset: 0x4E0D7, size: 0x8, addend: 0x0, symName: __ZNSt3__116allocator_traitsINS_9allocatorINS_11__tree_nodeINS_12__value_typeINS_12basic_stringIcNS_11char_traitsIcEENS1_IcEEEE7ChannelEEPvEEEEE8allocateB8ue170006ERSD_m, symObjAddr: 0x1720C, symBinAddr: 0x100021A8C, symSize: 0x2C }
  - { offsetInCU: 0x1DFF7, offset: 0x4E10A, size: 0x8, addend: 0x0, symName: __ZNSt3__121__map_node_destructorINS_9allocatorINS_11__tree_nodeINS_12__value_typeINS_12basic_stringIcNS_11char_traitsIcEENS1_IcEEEE7ChannelEEPvEEEEEC1B8ue170006ERSD_, symObjAddr: 0x17238, symBinAddr: 0x100021AB8, symSize: 0x34 }
  - { offsetInCU: 0x1E034, offset: 0x4E147, size: 0x8, addend: 0x0, symName: __ZNSt3__110unique_ptrINS_11__tree_nodeINS_12__value_typeINS_12basic_stringIcNS_11char_traitsIcEENS_9allocatorIcEEEE7ChannelEEPvEENS_21__map_node_destructorINS6_ISC_EEEEEC1B8ue170006ILb1EvEEPSC_NS_16__dependent_typeINS_27__unique_ptr_deleter_sfinaeISF_EEXT_EE20__good_rval_ref_typeE, symObjAddr: 0x1726C, symBinAddr: 0x100021AEC, symSize: 0x3C }
  - { offsetInCU: 0x1E084, offset: 0x4E197, size: 0x8, addend: 0x0, symName: __ZNSt3__116allocator_traitsINS_9allocatorINS_11__tree_nodeINS_12__value_typeINS_12basic_stringIcNS_11char_traitsIcEENS1_IcEEEE7ChannelEEPvEEEEE9constructB8ue170006IKS8_JRSG_EvEEvRSD_PT_DpOT0_, symObjAddr: 0x172A8, symBinAddr: 0x100021B28, symSize: 0x34 }
  - { offsetInCU: 0x1E0DB, offset: 0x4E1EE, size: 0x8, addend: 0x0, symName: __ZNKSt3__110unique_ptrINS_11__tree_nodeINS_12__value_typeINS_12basic_stringIcNS_11char_traitsIcEENS_9allocatorIcEEEE7ChannelEEPvEENS_21__map_node_destructorINS6_ISC_EEEEEptB8ue170006Ev, symObjAddr: 0x172DC, symBinAddr: 0x100021B5C, symSize: 0x28 }
  - { offsetInCU: 0x1E0FF, offset: 0x4E212, size: 0x8, addend: 0x0, symName: __ZNSt3__110unique_ptrINS_11__tree_nodeINS_12__value_typeINS_12basic_stringIcNS_11char_traitsIcEENS_9allocatorIcEEEE7ChannelEEPvEENS_21__map_node_destructorINS6_ISC_EEEEE11get_deleterB8ue170006Ev, symObjAddr: 0x17304, symBinAddr: 0x100021B84, symSize: 0x24 }
  - { offsetInCU: 0x1E128, offset: 0x4E23B, size: 0x8, addend: 0x0, symName: __ZNSt3__116allocator_traitsINS_9allocatorINS_11__tree_nodeINS_12__value_typeINS_12basic_stringIcNS_11char_traitsIcEENS1_IcEEEE7ChannelEEPvEEEEE9constructB8ue170006IS9_JEvEEvRSD_PT_DpOT0_, symObjAddr: 0x17328, symBinAddr: 0x100021BA8, symSize: 0x2C }
  - { offsetInCU: 0x1E16A, offset: 0x4E27D, size: 0x8, addend: 0x0, symName: __ZNSt3__19allocatorINS_11__tree_nodeINS_12__value_typeINS_12basic_stringIcNS_11char_traitsIcEENS0_IcEEEE7ChannelEEPvEEE8allocateB8ue170006Em, symObjAddr: 0x1738C, symBinAddr: 0x100021BD4, symSize: 0x8C }
  - { offsetInCU: 0x1E1A6, offset: 0x4E2B9, size: 0x8, addend: 0x0, symName: __ZNSt3__116allocator_traitsINS_9allocatorINS_11__tree_nodeINS_12__value_typeINS_12basic_stringIcNS_11char_traitsIcEENS1_IcEEEE7ChannelEEPvEEEEE8max_sizeB8ue170006ISD_vEEmRKSD_, symObjAddr: 0x17418, symBinAddr: 0x100021C60, symSize: 0x24 }
  - { offsetInCU: 0x1E1D4, offset: 0x4E2E7, size: 0x8, addend: 0x0, symName: __ZNKSt3__19allocatorINS_11__tree_nodeINS_12__value_typeINS_12basic_stringIcNS_11char_traitsIcEENS0_IcEEEE7ChannelEEPvEEE8max_sizeB8ue170006Ev, symObjAddr: 0x1743C, symBinAddr: 0x100021C84, symSize: 0x18 }
  - { offsetInCU: 0x1E1F9, offset: 0x4E30C, size: 0x8, addend: 0x0, symName: __ZNSt3__121__map_node_destructorINS_9allocatorINS_11__tree_nodeINS_12__value_typeINS_12basic_stringIcNS_11char_traitsIcEENS1_IcEEEE7ChannelEEPvEEEEEC2B8ue170006ERSD_, symObjAddr: 0x17454, symBinAddr: 0x100021C9C, symSize: 0x28 }
  - { offsetInCU: 0x1E231, offset: 0x4E344, size: 0x8, addend: 0x0, symName: __ZNSt3__110unique_ptrINS_11__tree_nodeINS_12__value_typeINS_12basic_stringIcNS_11char_traitsIcEENS_9allocatorIcEEEE7ChannelEEPvEENS_21__map_node_destructorINS6_ISC_EEEEEC2B8ue170006ILb1EvEEPSC_NS_16__dependent_typeINS_27__unique_ptr_deleter_sfinaeISF_EEXT_EE20__good_rval_ref_typeE, symObjAddr: 0x1747C, symBinAddr: 0x100021CC4, symSize: 0x5C }
  - { offsetInCU: 0x1E281, offset: 0x4E394, size: 0x8, addend: 0x0, symName: __ZNSt3__117__compressed_pairIPNS_11__tree_nodeINS_12__value_typeINS_12basic_stringIcNS_11char_traitsIcEENS_9allocatorIcEEEE7ChannelEEPvEENS_21__map_node_destructorINS6_ISC_EEEEEC1B8ue170006IRSD_SG_EEOT_OT0_, symObjAddr: 0x174D8, symBinAddr: 0x100021D20, symSize: 0x3C }
  - { offsetInCU: 0x1E2D8, offset: 0x4E3EB, size: 0x8, addend: 0x0, symName: __ZNSt3__117__compressed_pairIPNS_11__tree_nodeINS_12__value_typeINS_12basic_stringIcNS_11char_traitsIcEENS_9allocatorIcEEEE7ChannelEEPvEENS_21__map_node_destructorINS6_ISC_EEEEEC2B8ue170006IRSD_SG_EEOT_OT0_, symObjAddr: 0x17514, symBinAddr: 0x100021D5C, symSize: 0x48 }
  - { offsetInCU: 0x1E32F, offset: 0x4E442, size: 0x8, addend: 0x0, symName: __ZNSt3__122__compressed_pair_elemIPNS_11__tree_nodeINS_12__value_typeINS_12basic_stringIcNS_11char_traitsIcEENS_9allocatorIcEEEE7ChannelEEPvEELi0ELb0EEC2B8ue170006IRSD_vEEOT_, symObjAddr: 0x1755C, symBinAddr: 0x100021DA4, symSize: 0x24 }
  - { offsetInCU: 0x1E370, offset: 0x4E483, size: 0x8, addend: 0x0, symName: __ZNSt3__122__compressed_pair_elemINS_21__map_node_destructorINS_9allocatorINS_11__tree_nodeINS_12__value_typeINS_12basic_stringIcNS_11char_traitsIcEENS2_IcEEEE7ChannelEEPvEEEEEELi1ELb0EEC2B8ue170006ISF_vEEOT_, symObjAddr: 0x17580, symBinAddr: 0x100021DC8, symSize: 0x24 }
  - { offsetInCU: 0x1E3B1, offset: 0x4E4C4, size: 0x8, addend: 0x0, symName: __ZNSt3__19allocatorINS_11__tree_nodeINS_12__value_typeINS_12basic_stringIcNS_11char_traitsIcEENS0_IcEEEE7ChannelEEPvEEE9constructB8ue170006IKS7_JRSE_EEEvPT_DpOT0_, symObjAddr: 0x175A4, symBinAddr: 0x100021DEC, symSize: 0x30 }
  - { offsetInCU: 0x1E405, offset: 0x4E518, size: 0x8, addend: 0x0, symName: __ZNKSt3__117__compressed_pairIPNS_11__tree_nodeINS_12__value_typeINS_12basic_stringIcNS_11char_traitsIcEENS_9allocatorIcEEEE7ChannelEEPvEENS_21__map_node_destructorINS6_ISC_EEEEE5firstB8ue170006Ev, symObjAddr: 0x175D4, symBinAddr: 0x100021E1C, symSize: 0x24 }
  - { offsetInCU: 0x1E429, offset: 0x4E53C, size: 0x8, addend: 0x0, symName: __ZNKSt3__122__compressed_pair_elemIPNS_11__tree_nodeINS_12__value_typeINS_12basic_stringIcNS_11char_traitsIcEENS_9allocatorIcEEEE7ChannelEEPvEELi0ELb0EE5__getB8ue170006Ev, symObjAddr: 0x175F8, symBinAddr: 0x100021E40, symSize: 0x14 }
  - { offsetInCU: 0x1E44E, offset: 0x4E561, size: 0x8, addend: 0x0, symName: __ZNSt3__117__compressed_pairIPNS_11__tree_nodeINS_12__value_typeINS_12basic_stringIcNS_11char_traitsIcEENS_9allocatorIcEEEE7ChannelEEPvEENS_21__map_node_destructorINS6_ISC_EEEEE6secondB8ue170006Ev, symObjAddr: 0x1760C, symBinAddr: 0x100021E54, symSize: 0x28 }
  - { offsetInCU: 0x1E472, offset: 0x4E585, size: 0x8, addend: 0x0, symName: __ZNSt3__122__compressed_pair_elemINS_21__map_node_destructorINS_9allocatorINS_11__tree_nodeINS_12__value_typeINS_12basic_stringIcNS_11char_traitsIcEENS2_IcEEEE7ChannelEEPvEEEEEELi1ELb0EE5__getB8ue170006Ev, symObjAddr: 0x17634, symBinAddr: 0x100021E7C, symSize: 0x14 }
  - { offsetInCU: 0x1E497, offset: 0x4E5AA, size: 0x8, addend: 0x0, symName: __ZNSt3__19allocatorINS_11__tree_nodeINS_12__value_typeINS_12basic_stringIcNS_11char_traitsIcEENS0_IcEEEE7ChannelEEPvEEE9constructB8ue170006IS8_JEEEvPT_DpOT0_, symObjAddr: 0x17648, symBinAddr: 0x100021E90, symSize: 0x28 }
  - { offsetInCU: 0x1E4D7, offset: 0x4E5EA, size: 0x8, addend: 0x0, symName: __ZNSt3__117__compressed_pairIPNS_11__tree_nodeINS_12__value_typeINS_12basic_stringIcNS_11char_traitsIcEENS_9allocatorIcEEEE7ChannelEEPvEENS_21__map_node_destructorINS6_ISC_EEEEE5firstB8ue170006Ev, symObjAddr: 0x176D0, symBinAddr: 0x100021EB8, symSize: 0x24 }
  - { offsetInCU: 0x1E4FB, offset: 0x4E60E, size: 0x8, addend: 0x0, symName: __ZNSt3__122__compressed_pair_elemIPNS_11__tree_nodeINS_12__value_typeINS_12basic_stringIcNS_11char_traitsIcEENS_9allocatorIcEEEE7ChannelEEPvEELi0ELb0EE5__getB8ue170006Ev, symObjAddr: 0x176F4, symBinAddr: 0x100021EDC, symSize: 0x14 }
  - { offsetInCU: 0x1E520, offset: 0x4E633, size: 0x8, addend: 0x0, symName: __ZNSt3__110unique_ptrINS_11__tree_nodeINS_12__value_typeINS_12basic_stringIcNS_11char_traitsIcEENS_9allocatorIcEEEE7ChannelEEPvEENS_21__map_node_destructorINS6_ISC_EEEEED2B8ue170006Ev, symObjAddr: 0x17708, symBinAddr: 0x100021EF0, symSize: 0x30 }
  - { offsetInCU: 0x1E549, offset: 0x4E65C, size: 0x8, addend: 0x0, symName: __ZNSt3__110unique_ptrINS_11__tree_nodeINS_12__value_typeINS_12basic_stringIcNS_11char_traitsIcEENS_9allocatorIcEEEE7ChannelEEPvEENS_21__map_node_destructorINS6_ISC_EEEEE5resetB8ue170006EPSC_, symObjAddr: 0x17738, symBinAddr: 0x100021F20, symSize: 0x78 }
  - { offsetInCU: 0x1E58C, offset: 0x4E69F, size: 0x8, addend: 0x0, symName: __ZNSt3__121__map_node_destructorINS_9allocatorINS_11__tree_nodeINS_12__value_typeINS_12basic_stringIcNS_11char_traitsIcEENS1_IcEEEE7ChannelEEPvEEEEEclB8ue170006EPSC_, symObjAddr: 0x177B0, symBinAddr: 0x100021F98, symSize: 0xF4 }
  - { offsetInCU: 0x1E5BF, offset: 0x4E6D2, size: 0x8, addend: 0x0, symName: __ZNSt3__116allocator_traitsINS_9allocatorINS_11__tree_nodeINS_12__value_typeINS_12basic_stringIcNS_11char_traitsIcEENS1_IcEEEE7ChannelEEPvEEEEE7destroyB8ue170006IS9_vvEEvRSD_PT_, symObjAddr: 0x178A4, symBinAddr: 0x10002208C, symSize: 0x28 }
  - { offsetInCU: 0x1E5FA, offset: 0x4E70D, size: 0x8, addend: 0x0, symName: __ZNSt3__116allocator_traitsINS_9allocatorINS_11__tree_nodeINS_12__value_typeINS_12basic_stringIcNS_11char_traitsIcEENS1_IcEEEE7ChannelEEPvEEEEE7destroyB8ue170006IKS8_vvEEvRSD_PT_, symObjAddr: 0x178CC, symBinAddr: 0x1000220B4, symSize: 0x28 }
  - { offsetInCU: 0x1E635, offset: 0x4E748, size: 0x8, addend: 0x0, symName: __ZNSt3__113basic_ostreamIcNS_11char_traitsIcEEEC2B8ue170006EPNS_15basic_streambufIcS2_EE, symObjAddr: 0x18438, symBinAddr: 0x1000220DC, symSize: 0x60 }
  - { offsetInCU: 0x1E678, offset: 0x4E78B, size: 0x8, addend: 0x0, symName: __ZNSt3__16vectorINS_12basic_stringIcNS_11char_traitsIcEENS_9allocatorIcEEEENS4_IS6_EEE11__make_iterB8ue170006EPS6_, symObjAddr: 0x1855C, symBinAddr: 0x10002213C, symSize: 0x30 }
  - { offsetInCU: 0x1E6AB, offset: 0x4E7BE, size: 0x8, addend: 0x0, symName: __ZNSt3__111__wrap_iterIPNS_12basic_stringIcNS_11char_traitsIcEENS_9allocatorIcEEEEEC1B8ue170006ES7_, symObjAddr: 0x1858C, symBinAddr: 0x10002216C, symSize: 0x34 }
  - { offsetInCU: 0x1E6E2, offset: 0x4E7F5, size: 0x8, addend: 0x0, symName: __ZNSt3__111__wrap_iterIPNS_12basic_stringIcNS_11char_traitsIcEENS_9allocatorIcEEEEEC2B8ue170006ES7_, symObjAddr: 0x185C0, symBinAddr: 0x1000221A0, symSize: 0x20 }
  - { offsetInCU: 0x1E719, offset: 0x4E82C, size: 0x8, addend: 0x0, symName: __ZNKSt3__111__wrap_iterIPNS_12basic_stringIcNS_11char_traitsIcEENS_9allocatorIcEEEEE4baseB8ue170006Ev, symObjAddr: 0x18628, symBinAddr: 0x100022208, symSize: 0x18 }
  - { offsetInCU: 0x1E75C, offset: 0x4E86F, size: 0x8, addend: 0x0, symName: __ZNSt3__111__wrap_iterIPNS_12basic_stringIcNS_11char_traitsIcEENS_9allocatorIcEEEEEC2B8ue170006Ev, symObjAddr: 0x18D5C, symBinAddr: 0x100022220, symSize: 0x18 }
  - { offsetInCU: 0x1E785, offset: 0x4E898, size: 0x8, addend: 0x0, symName: __ZNSt3__114__map_iteratorINS_15__tree_iteratorINS_12__value_typeINS_12basic_stringIcNS_11char_traitsIcEENS_9allocatorIcEEEE6ClientEEPNS_11__tree_nodeISA_PvEElEEEC2B8ue170006Ev, symObjAddr: 0x18D74, symBinAddr: 0x100022238, symSize: 0x2C }
  - { offsetInCU: 0x1E7AE, offset: 0x4E8C1, size: 0x8, addend: 0x0, symName: __ZNSt3__115__tree_iteratorINS_12__value_typeINS_12basic_stringIcNS_11char_traitsIcEENS_9allocatorIcEEEE6ClientEEPNS_11__tree_nodeIS9_PvEElEC1B8ue170006Ev, symObjAddr: 0x18DA0, symBinAddr: 0x100022264, symSize: 0x2C }
  - { offsetInCU: 0x1E7D7, offset: 0x4E8EA, size: 0x8, addend: 0x0, symName: __ZNSt3__115__tree_iteratorINS_12__value_typeINS_12basic_stringIcNS_11char_traitsIcEENS_9allocatorIcEEEE6ClientEEPNS_11__tree_nodeIS9_PvEElEC2B8ue170006Ev, symObjAddr: 0x18DCC, symBinAddr: 0x100022290, symSize: 0x14 }
  - { offsetInCU: 0x1E800, offset: 0x4E913, size: 0x8, addend: 0x0, symName: __ZNSt3__16vectorINS_12basic_stringIcNS_11char_traitsIcEENS_9allocatorIcEEEENS4_IS6_EEEC2ERKS8_, symObjAddr: 0x194D4, symBinAddr: 0x1000223EC, symSize: 0x94 }
  - { offsetInCU: 0x1E83A, offset: 0x4E94D, size: 0x8, addend: 0x0, symName: __ZNSt3__116allocator_traitsINS_9allocatorINS_12basic_stringIcNS_11char_traitsIcEENS1_IcEEEEEEE37select_on_container_copy_constructionB8ue170006IS7_vvEES7_RKS7_, symObjAddr: 0x19568, symBinAddr: 0x100022480, symSize: 0x10 }
  - { offsetInCU: 0x1E86E, offset: 0x4E981, size: 0x8, addend: 0x0, symName: __ZNSt3__117__compressed_pairIPNS_12basic_stringIcNS_11char_traitsIcEENS_9allocatorIcEEEENS4_IS6_EEEC1B8ue170006IDnS8_EEOT_OT0_, symObjAddr: 0x19578, symBinAddr: 0x100022490, symSize: 0x3C }
  - { offsetInCU: 0x1E8C5, offset: 0x4E9D8, size: 0x8, addend: 0x0, symName: __ZNSt3__16vectorINS_12basic_stringIcNS_11char_traitsIcEENS_9allocatorIcEEEENS4_IS6_EEE16__init_with_sizeB8ue170006IPS6_SA_EEvT_T0_m, symObjAddr: 0x195B4, symBinAddr: 0x1000224CC, symSize: 0xC0 }
  - { offsetInCU: 0x1E938, offset: 0x4EA4B, size: 0x8, addend: 0x0, symName: __ZNSt3__117__compressed_pairIPNS_12basic_stringIcNS_11char_traitsIcEENS_9allocatorIcEEEENS4_IS6_EEEC2B8ue170006IDnS8_EEOT_OT0_, symObjAddr: 0x19674, symBinAddr: 0x10002258C, symSize: 0x44 }
  - { offsetInCU: 0x1E98F, offset: 0x4EAA2, size: 0x8, addend: 0x0, symName: __ZNSt3__122__compressed_pair_elemINS_9allocatorINS_12basic_stringIcNS_11char_traitsIcEENS1_IcEEEEEELi1ELb1EEC2B8ue170006IS7_vEEOT_, symObjAddr: 0x196B8, symBinAddr: 0x1000225D0, symSize: 0x18 }
  - { offsetInCU: 0x1E9D0, offset: 0x4EAE3, size: 0x8, addend: 0x0, symName: __ZNSt3__16vectorINS_12basic_stringIcNS_11char_traitsIcEENS_9allocatorIcEEEENS4_IS6_EEE11__vallocateB8ue170006Em, symObjAddr: 0x19710, symBinAddr: 0x100022628, symSize: 0xB4 }
  - { offsetInCU: 0x1EA13, offset: 0x4EB26, size: 0x8, addend: 0x0, symName: __ZNSt3__16vectorINS_12basic_stringIcNS_11char_traitsIcEENS_9allocatorIcEEEENS4_IS6_EEE18__construct_at_endIPS6_SA_EEvT_T0_m, symObjAddr: 0x197C4, symBinAddr: 0x1000226DC, symSize: 0x94 }
  - { offsetInCU: 0x1EA89, offset: 0x4EB9C, size: 0x8, addend: 0x0, symName: __ZNSt3__128__exception_guard_exceptionsINS_6vectorINS_12basic_stringIcNS_11char_traitsIcEENS_9allocatorIcEEEENS5_IS7_EEE16__destroy_vectorEE10__completeB8ue170006Ev, symObjAddr: 0x19858, symBinAddr: 0x100022770, symSize: 0x1C }
  - { offsetInCU: 0x1EAAE, offset: 0x4EBC1, size: 0x8, addend: 0x0, symName: __ZNSt3__128__exception_guard_exceptionsINS_6vectorINS_12basic_stringIcNS_11char_traitsIcEENS_9allocatorIcEEEENS5_IS7_EEE16__destroy_vectorEED1B8ue170006Ev, symObjAddr: 0x19874, symBinAddr: 0x10002278C, symSize: 0x2C }
  - { offsetInCU: 0x1EAD7, offset: 0x4EBEA, size: 0x8, addend: 0x0, symName: __ZNSt3__128__exception_guard_exceptionsINS_6vectorINS_12basic_stringIcNS_11char_traitsIcEENS_9allocatorIcEEEENS5_IS7_EEE16__destroy_vectorEEC1B8ue170006ESA_, symObjAddr: 0x198A0, symBinAddr: 0x1000227B8, symSize: 0x34 }
  - { offsetInCU: 0x1EB0E, offset: 0x4EC21, size: 0x8, addend: 0x0, symName: __ZNSt3__128__exception_guard_exceptionsINS_6vectorINS_12basic_stringIcNS_11char_traitsIcEENS_9allocatorIcEEEENS5_IS7_EEE16__destroy_vectorEEC2B8ue170006ESA_, symObjAddr: 0x198D4, symBinAddr: 0x1000227EC, symSize: 0x24 }
  - { offsetInCU: 0x1EB5E, offset: 0x4EC71, size: 0x8, addend: 0x0, symName: __ZNSt3__14pairIPNS_12basic_stringIcNS_11char_traitsIcEENS_9allocatorIcEEEES7_EC1B8ue170006ERKS7_SA_, symObjAddr: 0x19B80, symBinAddr: 0x100022A98, symSize: 0x3C }
  - { offsetInCU: 0x1EBA3, offset: 0x4ECB6, size: 0x8, addend: 0x0, symName: __ZNSt3__14pairIPNS_12basic_stringIcNS_11char_traitsIcEENS_9allocatorIcEEEES7_EC2B8ue170006ERKS7_SA_, symObjAddr: 0x19BBC, symBinAddr: 0x100022AD4, symSize: 0x34 }
  - { offsetInCU: 0x1EBE8, offset: 0x4ECFB, size: 0x8, addend: 0x0, symName: __ZNSt3__129_AllocatorDestroyRangeReverseINS_9allocatorINS_12basic_stringIcNS_11char_traitsIcEENS1_IcEEEEEEPS6_EC1B8ue170006ERS7_RS8_SB_, symObjAddr: 0x19C3C, symBinAddr: 0x100022B54, symSize: 0x44 }
  - { offsetInCU: 0x1EC3E, offset: 0x4ED51, size: 0x8, addend: 0x0, symName: __ZNSt3__116allocator_traitsINS_9allocatorINS_12basic_stringIcNS_11char_traitsIcEENS1_IcEEEEEEE9constructB8ue170006IS6_JRS6_EvEEvRS7_PT_DpOT0_, symObjAddr: 0x19C80, symBinAddr: 0x100022B98, symSize: 0x34 }
  - { offsetInCU: 0x1EC95, offset: 0x4EDA8, size: 0x8, addend: 0x0, symName: __ZNSt3__128__exception_guard_exceptionsINS_29_AllocatorDestroyRangeReverseINS_9allocatorINS_12basic_stringIcNS_11char_traitsIcEENS2_IcEEEEEEPS7_EEE10__completeB8ue170006Ev, symObjAddr: 0x19CB4, symBinAddr: 0x100022BCC, symSize: 0x1C }
  - { offsetInCU: 0x1ECBA, offset: 0x4EDCD, size: 0x8, addend: 0x0, symName: __ZNSt3__128__exception_guard_exceptionsINS_29_AllocatorDestroyRangeReverseINS_9allocatorINS_12basic_stringIcNS_11char_traitsIcEENS2_IcEEEEEEPS7_EEED1B8ue170006Ev, symObjAddr: 0x19CD0, symBinAddr: 0x100022BE8, symSize: 0x2C }
  - { offsetInCU: 0x1ECE3, offset: 0x4EDF6, size: 0x8, addend: 0x0, symName: __ZNSt3__128__exception_guard_exceptionsINS_29_AllocatorDestroyRangeReverseINS_9allocatorINS_12basic_stringIcNS_11char_traitsIcEENS2_IcEEEEEEPS7_EEEC1B8ue170006ESA_, symObjAddr: 0x19CFC, symBinAddr: 0x100022C14, symSize: 0x34 }
  - { offsetInCU: 0x1ED1B, offset: 0x4EE2E, size: 0x8, addend: 0x0, symName: __ZNSt3__128__exception_guard_exceptionsINS_29_AllocatorDestroyRangeReverseINS_9allocatorINS_12basic_stringIcNS_11char_traitsIcEENS2_IcEEEEEEPS7_EEEC2B8ue170006ESA_, symObjAddr: 0x19D30, symBinAddr: 0x100022C48, symSize: 0x30 }
  - { offsetInCU: 0x1ED53, offset: 0x4EE66, size: 0x8, addend: 0x0, symName: __ZNSt3__129_AllocatorDestroyRangeReverseINS_9allocatorINS_12basic_stringIcNS_11char_traitsIcEENS1_IcEEEEEEPS6_EC2B8ue170006ERS7_RS8_SB_, symObjAddr: 0x19D60, symBinAddr: 0x100022C78, symSize: 0x38 }
  - { offsetInCU: 0x1EDA9, offset: 0x4EEBC, size: 0x8, addend: 0x0, symName: __ZNSt3__19allocatorINS_12basic_stringIcNS_11char_traitsIcEENS0_IcEEEEE9constructB8ue170006IS5_JRS5_EEEvPT_DpOT0_, symObjAddr: 0x19D98, symBinAddr: 0x100022CB0, symSize: 0x30 }
  - { offsetInCU: 0x1EDFD, offset: 0x4EF10, size: 0x8, addend: 0x0, symName: __ZNSt3__128__exception_guard_exceptionsINS_29_AllocatorDestroyRangeReverseINS_9allocatorINS_12basic_stringIcNS_11char_traitsIcEENS2_IcEEEEEEPS7_EEED2B8ue170006Ev, symObjAddr: 0x19DC8, symBinAddr: 0x100022CE0, symSize: 0x48 }
  - { offsetInCU: 0x1EE26, offset: 0x4EF39, size: 0x8, addend: 0x0, symName: __ZNKSt3__129_AllocatorDestroyRangeReverseINS_9allocatorINS_12basic_stringIcNS_11char_traitsIcEENS1_IcEEEEEEPS6_EclB8ue170006Ev, symObjAddr: 0x19E10, symBinAddr: 0x100022D28, symSize: 0x68 }
  - { offsetInCU: 0x1EE4A, offset: 0x4EF5D, size: 0x8, addend: 0x0, symName: __ZNSt3__118__unwrap_iter_implIPNS_12basic_stringIcNS_11char_traitsIcEENS_9allocatorIcEEEELb1EE8__unwrapB8ue170006ES7_, symObjAddr: 0x19EE8, symBinAddr: 0x100022E00, symSize: 0x24 }
  - { offsetInCU: 0x1EE6D, offset: 0x4EF80, size: 0x8, addend: 0x0, symName: __ZNSt3__118__unwrap_iter_implIPNS_12basic_stringIcNS_11char_traitsIcEENS_9allocatorIcEEEELb1EE8__rewrapB8ue170006ES7_S7_, symObjAddr: 0x19F0C, symBinAddr: 0x100022E24, symSize: 0x58 }
  - { offsetInCU: 0x1EE9E, offset: 0x4EFB1, size: 0x8, addend: 0x0, symName: __ZNSt3__128__exception_guard_exceptionsINS_6vectorINS_12basic_stringIcNS_11char_traitsIcEENS_9allocatorIcEEEENS5_IS7_EEE16__destroy_vectorEED2B8ue170006Ev, symObjAddr: 0x19F64, symBinAddr: 0x100022E7C, symSize: 0x48 }
  - { offsetInCU: 0x1EED1, offset: 0x4EFE4, size: 0x8, addend: 0x0, symName: __ZNSt3__19allocatorIcEC1B8ue170006Ev, symObjAddr: 0x1B940, symBinAddr: 0x100022EC4, symSize: 0x2C }
  - { offsetInCU: 0x1EEFA, offset: 0x4F00D, size: 0x8, addend: 0x0, symName: __ZNKSt3__113basic_filebufIcNS_11char_traitsIcEEE7is_openEv, symObjAddr: 0x1B998, symBinAddr: 0x100022EF0, symSize: 0x24 }
  - { offsetInCU: 0x1EF21, offset: 0x4F034, size: 0x8, addend: 0x0, symName: __ZNSt3__13mapINS_12basic_stringIcNS_11char_traitsIcEENS_9allocatorIcEEEEM6ServerFvRKS6_R6ClientENS_4lessIS6_EENS4_INS_4pairIS8_SD_EEEEEC2B8ue170006Ev, symObjAddr: 0x1B9BC, symBinAddr: 0x100022F14, symSize: 0x40 }
  - { offsetInCU: 0x1EF4A, offset: 0x4F05D, size: 0x8, addend: 0x0, symName: __ZNSt3__119__map_value_compareINS_12basic_stringIcNS_11char_traitsIcEENS_9allocatorIcEEEENS_12__value_typeIS6_M6ServerFvRKS6_R6ClientEEENS_4lessIS6_EELb1EEC1B8ue170006ESH_, symObjAddr: 0x1B9FC, symBinAddr: 0x100022F54, symSize: 0x2C }
  - { offsetInCU: 0x1EF82, offset: 0x4F095, size: 0x8, addend: 0x0, symName: __ZNSt3__16__treeINS_12__value_typeINS_12basic_stringIcNS_11char_traitsIcEENS_9allocatorIcEEEEM6ServerFvRKS7_R6ClientEEENS_19__map_value_compareIS7_SF_NS_4lessIS7_EELb1EEENS5_ISF_EEEC1ERKSJ_, symObjAddr: 0x1BA28, symBinAddr: 0x100022F80, symSize: 0x34 }
  - { offsetInCU: 0x1EFBC, offset: 0x4F0CF, size: 0x8, addend: 0x0, symName: __ZNSt3__119__map_value_compareINS_12basic_stringIcNS_11char_traitsIcEENS_9allocatorIcEEEENS_12__value_typeIS6_M6ServerFvRKS6_R6ClientEEENS_4lessIS6_EELb1EEC2B8ue170006ESH_, symObjAddr: 0x1BA5C, symBinAddr: 0x100022FB4, symSize: 0x14 }
  - { offsetInCU: 0x1EFF4, offset: 0x4F107, size: 0x8, addend: 0x0, symName: __ZNSt3__16__treeINS_12__value_typeINS_12basic_stringIcNS_11char_traitsIcEENS_9allocatorIcEEEEM6ServerFvRKS7_R6ClientEEENS_19__map_value_compareIS7_SF_NS_4lessIS7_EELb1EEENS5_ISF_EEEC2ERKSJ_, symObjAddr: 0x1BA70, symBinAddr: 0x100022FC8, symSize: 0x70 }
  - { offsetInCU: 0x1F02E, offset: 0x4F141, size: 0x8, addend: 0x0, symName: __ZNSt3__117__compressed_pairINS_15__tree_end_nodeIPNS_16__tree_node_baseIPvEEEENS_9allocatorINS_11__tree_nodeINS_12__value_typeINS_12basic_stringIcNS_11char_traitsIcEENS7_IcEEEEM6ServerFvRKSE_R6ClientEEES3_EEEEEC1B8ue170006ILb1EvEEv, symObjAddr: 0x1BAE0, symBinAddr: 0x100023038, symSize: 0x2C }
  - { offsetInCU: 0x1F062, offset: 0x4F175, size: 0x8, addend: 0x0, symName: __ZNSt3__117__compressed_pairImNS_19__map_value_compareINS_12basic_stringIcNS_11char_traitsIcEENS_9allocatorIcEEEENS_12__value_typeIS7_M6ServerFvRKS7_R6ClientEEENS_4lessIS7_EELb1EEEEC1B8ue170006IiRKSJ_EEOT_OT0_, symObjAddr: 0x1BB0C, symBinAddr: 0x100023064, symSize: 0x3C }
  - { offsetInCU: 0x1F0B9, offset: 0x4F1CC, size: 0x8, addend: 0x0, symName: __ZNSt3__16__treeINS_12__value_typeINS_12basic_stringIcNS_11char_traitsIcEENS_9allocatorIcEEEEM6ServerFvRKS7_R6ClientEEENS_19__map_value_compareIS7_SF_NS_4lessIS7_EELb1EEENS5_ISF_EEE10__end_nodeB8ue170006Ev, symObjAddr: 0x1BB48, symBinAddr: 0x1000230A0, symSize: 0x2C }
  - { offsetInCU: 0x1F0DD, offset: 0x4F1F0, size: 0x8, addend: 0x0, symName: __ZNSt3__16__treeINS_12__value_typeINS_12basic_stringIcNS_11char_traitsIcEENS_9allocatorIcEEEEM6ServerFvRKS7_R6ClientEEENS_19__map_value_compareIS7_SF_NS_4lessIS7_EELb1EEENS5_ISF_EEE12__begin_nodeB8ue170006Ev, symObjAddr: 0x1BB74, symBinAddr: 0x1000230CC, symSize: 0x14 }
  - { offsetInCU: 0x1F102, offset: 0x4F215, size: 0x8, addend: 0x0, symName: __ZNSt3__117__compressed_pairINS_15__tree_end_nodeIPNS_16__tree_node_baseIPvEEEENS_9allocatorINS_11__tree_nodeINS_12__value_typeINS_12basic_stringIcNS_11char_traitsIcEENS7_IcEEEEM6ServerFvRKSE_R6ClientEEES3_EEEEEC2B8ue170006ILb1EvEEv, symObjAddr: 0x1BB88, symBinAddr: 0x1000230E0, symSize: 0x34 }
  - { offsetInCU: 0x1F136, offset: 0x4F249, size: 0x8, addend: 0x0, symName: __ZNSt3__122__compressed_pair_elemINS_9allocatorINS_11__tree_nodeINS_12__value_typeINS_12basic_stringIcNS_11char_traitsIcEENS1_IcEEEEM6ServerFvRKS8_R6ClientEEEPvEEEELi1ELb1EEC2B8ue170006ENS_16__value_init_tagE, symObjAddr: 0x1BBE8, symBinAddr: 0x100023114, symSize: 0x2C }
  - { offsetInCU: 0x1F16A, offset: 0x4F27D, size: 0x8, addend: 0x0, symName: __ZNSt3__19allocatorINS_11__tree_nodeINS_12__value_typeINS_12basic_stringIcNS_11char_traitsIcEENS0_IcEEEEM6ServerFvRKS7_R6ClientEEEPvEEEC2B8ue170006Ev, symObjAddr: 0x1BC58, symBinAddr: 0x100023140, symSize: 0x2C }
  - { offsetInCU: 0x1F193, offset: 0x4F2A6, size: 0x8, addend: 0x0, symName: __ZNSt3__116__non_trivial_ifILb1ENS_9allocatorINS_11__tree_nodeINS_12__value_typeINS_12basic_stringIcNS_11char_traitsIcEENS1_IcEEEEM6ServerFvRKS8_R6ClientEEEPvEEEEEC2B8ue170006Ev, symObjAddr: 0x1BC84, symBinAddr: 0x10002316C, symSize: 0x14 }
  - { offsetInCU: 0x1F1BC, offset: 0x4F2CF, size: 0x8, addend: 0x0, symName: __ZNSt3__117__compressed_pairImNS_19__map_value_compareINS_12basic_stringIcNS_11char_traitsIcEENS_9allocatorIcEEEENS_12__value_typeIS7_M6ServerFvRKS7_R6ClientEEENS_4lessIS7_EELb1EEEEC2B8ue170006IiRKSJ_EEOT_OT0_, symObjAddr: 0x1BC98, symBinAddr: 0x100023180, symSize: 0x44 }
  - { offsetInCU: 0x1F213, offset: 0x4F326, size: 0x8, addend: 0x0, symName: __ZNSt3__122__compressed_pair_elemINS_19__map_value_compareINS_12basic_stringIcNS_11char_traitsIcEENS_9allocatorIcEEEENS_12__value_typeIS7_M6ServerFvRKS7_R6ClientEEENS_4lessIS7_EELb1EEELi1ELb1EEC2B8ue170006IRKSJ_vEEOT_, symObjAddr: 0x1BCDC, symBinAddr: 0x1000231C4, symSize: 0x18 }
  - { offsetInCU: 0x1F254, offset: 0x4F367, size: 0x8, addend: 0x0, symName: __ZNSt3__117__compressed_pairINS_15__tree_end_nodeIPNS_16__tree_node_baseIPvEEEENS_9allocatorINS_11__tree_nodeINS_12__value_typeINS_12basic_stringIcNS_11char_traitsIcEENS7_IcEEEEM6ServerFvRKSE_R6ClientEEES3_EEEEE5firstB8ue170006Ev, symObjAddr: 0x1BCF4, symBinAddr: 0x1000231DC, symSize: 0x24 }
  - { offsetInCU: 0x1F278, offset: 0x4F38B, size: 0x8, addend: 0x0, symName: __ZNSt3__13mapINS_12basic_stringIcNS_11char_traitsIcEENS_9allocatorIcEEEEM6ServerFvRKS6_R6ClientENS_4lessIS6_EENS4_INS_4pairIS8_SD_EEEEED2B8ue170006Ev, symObjAddr: 0x1BD18, symBinAddr: 0x100023200, symSize: 0x2C }
  - { offsetInCU: 0x1F2A1, offset: 0x4F3B4, size: 0x8, addend: 0x0, symName: __ZNSt3__16__treeINS_12__value_typeINS_12basic_stringIcNS_11char_traitsIcEENS_9allocatorIcEEEEM6ServerFvRKS7_R6ClientEEENS_19__map_value_compareIS7_SF_NS_4lessIS7_EELb1EEENS5_ISF_EEED1Ev, symObjAddr: 0x1BD44, symBinAddr: 0x10002322C, symSize: 0x2C }
  - { offsetInCU: 0x1F2CC, offset: 0x4F3DF, size: 0x8, addend: 0x0, symName: __ZNSt3__16__treeINS_12__value_typeINS_12basic_stringIcNS_11char_traitsIcEENS_9allocatorIcEEEEM6ServerFvRKS7_R6ClientEEENS_19__map_value_compareIS7_SF_NS_4lessIS7_EELb1EEENS5_ISF_EEED2Ev, symObjAddr: 0x1BD70, symBinAddr: 0x100023258, symSize: 0x38 }
  - { offsetInCU: 0x1F2F7, offset: 0x4F40A, size: 0x8, addend: 0x0, symName: __ZNSt3__16__treeINS_12__value_typeINS_12basic_stringIcNS_11char_traitsIcEENS_9allocatorIcEEEEM6ServerFvRKS7_R6ClientEEENS_19__map_value_compareIS7_SF_NS_4lessIS7_EELb1EEENS5_ISF_EEE7destroyEPNS_11__tree_nodeISF_PvEE, symObjAddr: 0x1BDA8, symBinAddr: 0x100023290, symSize: 0xC0 }
  - { offsetInCU: 0x1F34B, offset: 0x4F45E, size: 0x8, addend: 0x0, symName: __ZNKSt3__16__treeINS_12__value_typeINS_12basic_stringIcNS_11char_traitsIcEENS_9allocatorIcEEEEM6ServerFvRKS7_R6ClientEEENS_19__map_value_compareIS7_SF_NS_4lessIS7_EELb1EEENS5_ISF_EEE6__rootB8ue170006Ev, symObjAddr: 0x1BE68, symBinAddr: 0x100023350, symSize: 0x28 }
  - { offsetInCU: 0x1F36F, offset: 0x4F482, size: 0x8, addend: 0x0, symName: __ZNSt3__16__treeINS_12__value_typeINS_12basic_stringIcNS_11char_traitsIcEENS_9allocatorIcEEEEM6ServerFvRKS7_R6ClientEEENS_19__map_value_compareIS7_SF_NS_4lessIS7_EELb1EEENS5_ISF_EEE12__node_allocB8ue170006Ev, symObjAddr: 0x1BE90, symBinAddr: 0x100023378, symSize: 0x28 }
  - { offsetInCU: 0x1F393, offset: 0x4F4A6, size: 0x8, addend: 0x0, symName: __ZNSt3__116allocator_traitsINS_9allocatorINS_11__tree_nodeINS_12__value_typeINS_12basic_stringIcNS_11char_traitsIcEENS1_IcEEEEM6ServerFvRKS8_R6ClientEEEPvEEEEE7destroyB8ue170006INS_4pairISA_SF_EEvvEEvRSJ_PT_, symObjAddr: 0x1BEB8, symBinAddr: 0x1000233A0, symSize: 0x28 }
  - { offsetInCU: 0x1F3CE, offset: 0x4F4E1, size: 0x8, addend: 0x0, symName: __ZNSt3__122__tree_key_value_typesINS_12__value_typeINS_12basic_stringIcNS_11char_traitsIcEENS_9allocatorIcEEEEM6ServerFvRKS7_R6ClientEEEE9__get_ptrB8ue170006ERSF_, symObjAddr: 0x1BEE0, symBinAddr: 0x1000233C8, symSize: 0x24 }
  - { offsetInCU: 0x1F3F2, offset: 0x4F505, size: 0x8, addend: 0x0, symName: __ZNSt3__116allocator_traitsINS_9allocatorINS_11__tree_nodeINS_12__value_typeINS_12basic_stringIcNS_11char_traitsIcEENS1_IcEEEEM6ServerFvRKS8_R6ClientEEEPvEEEEE10deallocateB8ue170006ERSJ_PSI_m, symObjAddr: 0x1BF04, symBinAddr: 0x1000233EC, symSize: 0x34 }
  - { offsetInCU: 0x1F434, offset: 0x4F547, size: 0x8, addend: 0x0, symName: __ZNSt3__117__compressed_pairINS_15__tree_end_nodeIPNS_16__tree_node_baseIPvEEEENS_9allocatorINS_11__tree_nodeINS_12__value_typeINS_12basic_stringIcNS_11char_traitsIcEENS7_IcEEEEM6ServerFvRKSE_R6ClientEEES3_EEEEE6secondB8ue170006Ev, symObjAddr: 0x1BF38, symBinAddr: 0x100023420, symSize: 0x24 }
  - { offsetInCU: 0x1F458, offset: 0x4F56B, size: 0x8, addend: 0x0, symName: __ZNSt3__122__compressed_pair_elemINS_9allocatorINS_11__tree_nodeINS_12__value_typeINS_12basic_stringIcNS_11char_traitsIcEENS1_IcEEEEM6ServerFvRKS8_R6ClientEEEPvEEEELi1ELb1EE5__getB8ue170006Ev, symObjAddr: 0x1BF5C, symBinAddr: 0x100023444, symSize: 0x14 }
  - { offsetInCU: 0x1F47D, offset: 0x4F590, size: 0x8, addend: 0x0, symName: __ZNSt3__112__value_typeINS_12basic_stringIcNS_11char_traitsIcEENS_9allocatorIcEEEEM6ServerFvRKS6_R6ClientEE11__get_valueB8ue170006Ev, symObjAddr: 0x1BF70, symBinAddr: 0x100023458, symSize: 0x14 }
  - { offsetInCU: 0x1F4A2, offset: 0x4F5B5, size: 0x8, addend: 0x0, symName: __ZNSt3__19allocatorINS_11__tree_nodeINS_12__value_typeINS_12basic_stringIcNS_11char_traitsIcEENS0_IcEEEEM6ServerFvRKS7_R6ClientEEEPvEEE10deallocateB8ue170006EPSH_m, symObjAddr: 0x1BF84, symBinAddr: 0x10002346C, symSize: 0x74 }
  - { offsetInCU: 0x1F4E2, offset: 0x4F5F5, size: 0x8, addend: 0x0, symName: __ZNKSt3__16__treeINS_12__value_typeINS_12basic_stringIcNS_11char_traitsIcEENS_9allocatorIcEEEEM6ServerFvRKS7_R6ClientEEENS_19__map_value_compareIS7_SF_NS_4lessIS7_EELb1EEENS5_ISF_EEE10__end_nodeB8ue170006Ev, symObjAddr: 0x1BFF8, symBinAddr: 0x1000234E0, symSize: 0x2C }
  - { offsetInCU: 0x1F506, offset: 0x4F619, size: 0x8, addend: 0x0, symName: __ZNKSt3__117__compressed_pairINS_15__tree_end_nodeIPNS_16__tree_node_baseIPvEEEENS_9allocatorINS_11__tree_nodeINS_12__value_typeINS_12basic_stringIcNS_11char_traitsIcEENS7_IcEEEEM6ServerFvRKSE_R6ClientEEES3_EEEEE5firstB8ue170006Ev, symObjAddr: 0x1C024, symBinAddr: 0x10002350C, symSize: 0x24 }
  - { offsetInCU: 0x1F52A, offset: 0x4F63D, size: 0x8, addend: 0x0, symName: __ZNSt3__14pairIPKcM6ServerFvRKNS_12basic_stringIcNS_11char_traitsIcEENS_9allocatorIcEEEER6ClientEEC1B8ue170006ERKS2_RKSF_, symObjAddr: 0x1C048, symBinAddr: 0x100023530, symSize: 0x3C }
  - { offsetInCU: 0x1F56F, offset: 0x4F682, size: 0x8, addend: 0x0, symName: __ZNSt3__14pairIPKcM6ServerFvRKNS_12basic_stringIcNS_11char_traitsIcEENS_9allocatorIcEEEER6ClientEEC2B8ue170006ERKS2_RKSF_, symObjAddr: 0x1C084, symBinAddr: 0x10002356C, symSize: 0x3C }
  - { offsetInCU: 0x1F5B4, offset: 0x4F6C7, size: 0x8, addend: 0x0, symName: __ZNSt3__16__treeINS_12__value_typeINS_12basic_stringIcNS_11char_traitsIcEENS_9allocatorIcEEEEM6ServerFvRKS7_R6ClientEEENS_19__map_value_compareIS7_SF_NS_4lessIS7_EELb1EEENS5_ISF_EEE15__insert_uniqueB8ue170006ERKNS_4pairIS9_SE_EE, symObjAddr: 0x1C0C0, symBinAddr: 0x1000235A8, symSize: 0x50 }
  - { offsetInCU: 0x1F5E7, offset: 0x4F6FA, size: 0x8, addend: 0x0, symName: __ZNSt3__14pairINS_14__map_iteratorINS_15__tree_iteratorINS_12__value_typeINS_12basic_stringIcNS_11char_traitsIcEENS_9allocatorIcEEEEM6ServerFvRKS9_R6ClientEEEPNS_11__tree_nodeISH_PvEElEEEEbEC1B8ue170006ISM_bEERKNS0_IT_T0_EE, symObjAddr: 0x1C110, symBinAddr: 0x1000235F8, symSize: 0x34 }
  - { offsetInCU: 0x1F630, offset: 0x4F743, size: 0x8, addend: 0x0, symName: __ZNSt3__16__treeINS_12__value_typeINS_12basic_stringIcNS_11char_traitsIcEENS_9allocatorIcEEEEM6ServerFvRKS7_R6ClientEEENS_19__map_value_compareIS7_SF_NS_4lessIS7_EELb1EEENS5_ISF_EEE25__emplace_unique_key_argsIS7_JRKNS_4pairIS9_SE_EEEEENSN_INS_15__tree_iteratorISF_PNS_11__tree_nodeISF_PvEElEEbEERKT_DpOT0_, symObjAddr: 0x1C144, symBinAddr: 0x10002362C, symSize: 0xF0 }
  - { offsetInCU: 0x1F6E0, offset: 0x4F7F3, size: 0x8, addend: 0x0, symName: __ZNSt3__122__tree_key_value_typesINS_12__value_typeINS_12basic_stringIcNS_11char_traitsIcEENS_9allocatorIcEEEEM6ServerFvRKS7_R6ClientEEEE9__get_keyB8ue170006IKNS_4pairIS9_SE_EEEENS_9enable_ifIXsr17__is_same_uncvrefIT_SJ_EE5valueESA_E4typeERSM_, symObjAddr: 0x1C234, symBinAddr: 0x10002371C, symSize: 0x14 }
  - { offsetInCU: 0x1F70D, offset: 0x4F820, size: 0x8, addend: 0x0, symName: __ZNSt3__16__treeINS_12__value_typeINS_12basic_stringIcNS_11char_traitsIcEENS_9allocatorIcEEEEM6ServerFvRKS7_R6ClientEEENS_19__map_value_compareIS7_SF_NS_4lessIS7_EELb1EEENS5_ISF_EEE12__find_equalIS7_EERPNS_16__tree_node_baseIPvEERPNS_15__tree_end_nodeISQ_EERKT_, symObjAddr: 0x1C248, symBinAddr: 0x100023730, symSize: 0x184 }
  - { offsetInCU: 0x1F77B, offset: 0x4F88E, size: 0x8, addend: 0x0, symName: __ZNSt3__16__treeINS_12__value_typeINS_12basic_stringIcNS_11char_traitsIcEENS_9allocatorIcEEEEM6ServerFvRKS7_R6ClientEEENS_19__map_value_compareIS7_SF_NS_4lessIS7_EELb1EEENS5_ISF_EEE16__construct_nodeIJRKNS_4pairIS9_SE_EEEEENS_10unique_ptrINS_11__tree_nodeISF_PvEENS_22__tree_node_destructorINS5_ISU_EEEEEEDpOT_, symObjAddr: 0x1C3CC, symBinAddr: 0x1000238B4, symSize: 0x118 }
  - { offsetInCU: 0x1F7DD, offset: 0x4F8F0, size: 0x8, addend: 0x0, symName: __ZNSt3__16__treeINS_12__value_typeINS_12basic_stringIcNS_11char_traitsIcEENS_9allocatorIcEEEEM6ServerFvRKS7_R6ClientEEENS_19__map_value_compareIS7_SF_NS_4lessIS7_EELb1EEENS5_ISF_EEE16__insert_node_atEPNS_15__tree_end_nodeIPNS_16__tree_node_baseIPvEEEERSQ_SQ_, symObjAddr: 0x1C4E4, symBinAddr: 0x1000239CC, symSize: 0xCC }
  - { offsetInCU: 0x1F831, offset: 0x4F944, size: 0x8, addend: 0x0, symName: __ZNKSt3__110unique_ptrINS_11__tree_nodeINS_12__value_typeINS_12basic_stringIcNS_11char_traitsIcEENS_9allocatorIcEEEEM6ServerFvRKS8_R6ClientEEEPvEENS_22__tree_node_destructorINS6_ISI_EEEEE3getB8ue170006Ev, symObjAddr: 0x1C5B0, symBinAddr: 0x100023A98, symSize: 0x28 }
  - { offsetInCU: 0x1F855, offset: 0x4F968, size: 0x8, addend: 0x0, symName: __ZNSt3__110unique_ptrINS_11__tree_nodeINS_12__value_typeINS_12basic_stringIcNS_11char_traitsIcEENS_9allocatorIcEEEEM6ServerFvRKS8_R6ClientEEEPvEENS_22__tree_node_destructorINS6_ISI_EEEEE7releaseB8ue170006Ev, symObjAddr: 0x1C5D8, symBinAddr: 0x100023AC0, symSize: 0x44 }
  - { offsetInCU: 0x1F889, offset: 0x4F99C, size: 0x8, addend: 0x0, symName: __ZNSt3__110unique_ptrINS_11__tree_nodeINS_12__value_typeINS_12basic_stringIcNS_11char_traitsIcEENS_9allocatorIcEEEEM6ServerFvRKS8_R6ClientEEEPvEENS_22__tree_node_destructorINS6_ISI_EEEEED1B8ue170006Ev, symObjAddr: 0x1C61C, symBinAddr: 0x100023B04, symSize: 0x2C }
  - { offsetInCU: 0x1F8B2, offset: 0x4F9C5, size: 0x8, addend: 0x0, symName: __ZNSt3__115__tree_iteratorINS_12__value_typeINS_12basic_stringIcNS_11char_traitsIcEENS_9allocatorIcEEEEM6ServerFvRKS7_R6ClientEEEPNS_11__tree_nodeISF_PvEElEC1B8ue170006ESJ_, symObjAddr: 0x1C648, symBinAddr: 0x100023B30, symSize: 0x34 }
  - { offsetInCU: 0x1F8EA, offset: 0x4F9FD, size: 0x8, addend: 0x0, symName: __ZNSt3__14pairINS_15__tree_iteratorINS_12__value_typeINS_12basic_stringIcNS_11char_traitsIcEENS_9allocatorIcEEEEM6ServerFvRKS8_R6ClientEEEPNS_11__tree_nodeISG_PvEElEEbEC1B8ue170006ERKSL_RKb, symObjAddr: 0x1C67C, symBinAddr: 0x100023B64, symSize: 0x3C }
  - { offsetInCU: 0x1F92F, offset: 0x4FA42, size: 0x8, addend: 0x0, symName: __ZNKSt3__16__treeINS_12__value_typeINS_12basic_stringIcNS_11char_traitsIcEENS_9allocatorIcEEEEM6ServerFvRKS7_R6ClientEEENS_19__map_value_compareIS7_SF_NS_4lessIS7_EELb1EEENS5_ISF_EEE10__root_ptrB8ue170006Ev, symObjAddr: 0x1C6B8, symBinAddr: 0x100023BA0, symSize: 0x24 }
  - { offsetInCU: 0x1F953, offset: 0x4FA66, size: 0x8, addend: 0x0, symName: __ZNSt3__16__treeINS_12__value_typeINS_12basic_stringIcNS_11char_traitsIcEENS_9allocatorIcEEEEM6ServerFvRKS7_R6ClientEEENS_19__map_value_compareIS7_SF_NS_4lessIS7_EELb1EEENS5_ISF_EEE10value_compB8ue170006Ev, symObjAddr: 0x1C6DC, symBinAddr: 0x100023BC4, symSize: 0x28 }
  - { offsetInCU: 0x1F977, offset: 0x4FA8A, size: 0x8, addend: 0x0, symName: __ZNKSt3__119__map_value_compareINS_12basic_stringIcNS_11char_traitsIcEENS_9allocatorIcEEEENS_12__value_typeIS6_M6ServerFvRKS6_R6ClientEEENS_4lessIS6_EELb1EEclB8ue170006ESA_RKSF_, symObjAddr: 0x1C704, symBinAddr: 0x100023BEC, symSize: 0x50 }
  - { offsetInCU: 0x1F9B9, offset: 0x4FACC, size: 0x8, addend: 0x0, symName: __ZNKSt3__119__map_value_compareINS_12basic_stringIcNS_11char_traitsIcEENS_9allocatorIcEEEENS_12__value_typeIS6_M6ServerFvRKS6_R6ClientEEENS_4lessIS6_EELb1EEclB8ue170006ERKSF_SA_, symObjAddr: 0x1C754, symBinAddr: 0x100023C3C, symSize: 0x48 }
  - { offsetInCU: 0x1F9FB, offset: 0x4FB0E, size: 0x8, addend: 0x0, symName: __ZNSt3__117__compressed_pairImNS_19__map_value_compareINS_12basic_stringIcNS_11char_traitsIcEENS_9allocatorIcEEEENS_12__value_typeIS7_M6ServerFvRKS7_R6ClientEEENS_4lessIS7_EELb1EEEE6secondB8ue170006Ev, symObjAddr: 0x1C79C, symBinAddr: 0x100023C84, symSize: 0x24 }
  - { offsetInCU: 0x1FA1F, offset: 0x4FB32, size: 0x8, addend: 0x0, symName: __ZNSt3__122__compressed_pair_elemINS_19__map_value_compareINS_12basic_stringIcNS_11char_traitsIcEENS_9allocatorIcEEEENS_12__value_typeIS7_M6ServerFvRKS7_R6ClientEEENS_4lessIS7_EELb1EEELi1ELb1EE5__getB8ue170006Ev, symObjAddr: 0x1C7C0, symBinAddr: 0x100023CA8, symSize: 0x14 }
  - { offsetInCU: 0x1FA44, offset: 0x4FB57, size: 0x8, addend: 0x0, symName: __ZNKSt3__112__value_typeINS_12basic_stringIcNS_11char_traitsIcEENS_9allocatorIcEEEEM6ServerFvRKS6_R6ClientEE11__get_valueB8ue170006Ev, symObjAddr: 0x1C7D4, symBinAddr: 0x100023CBC, symSize: 0x14 }
  - { offsetInCU: 0x1FA69, offset: 0x4FB7C, size: 0x8, addend: 0x0, symName: __ZNSt3__116allocator_traitsINS_9allocatorINS_11__tree_nodeINS_12__value_typeINS_12basic_stringIcNS_11char_traitsIcEENS1_IcEEEEM6ServerFvRKS8_R6ClientEEEPvEEEEE8allocateB8ue170006ERSJ_m, symObjAddr: 0x1C7E8, symBinAddr: 0x100023CD0, symSize: 0x2C }
  - { offsetInCU: 0x1FA9C, offset: 0x4FBAF, size: 0x8, addend: 0x0, symName: __ZNSt3__122__tree_node_destructorINS_9allocatorINS_11__tree_nodeINS_12__value_typeINS_12basic_stringIcNS_11char_traitsIcEENS1_IcEEEEM6ServerFvRKS8_R6ClientEEEPvEEEEEC1B8ue170006ERSJ_b, symObjAddr: 0x1C814, symBinAddr: 0x100023CFC, symSize: 0x48 }
  - { offsetInCU: 0x1FAE8, offset: 0x4FBFB, size: 0x8, addend: 0x0, symName: __ZNSt3__110unique_ptrINS_11__tree_nodeINS_12__value_typeINS_12basic_stringIcNS_11char_traitsIcEENS_9allocatorIcEEEEM6ServerFvRKS8_R6ClientEEEPvEENS_22__tree_node_destructorINS6_ISI_EEEEEC1B8ue170006ILb1EvEEPSI_NS_16__dependent_typeINS_27__unique_ptr_deleter_sfinaeISL_EEXT_EE20__good_rval_ref_typeE, symObjAddr: 0x1C85C, symBinAddr: 0x100023D44, symSize: 0x3C }
  - { offsetInCU: 0x1FB38, offset: 0x4FC4B, size: 0x8, addend: 0x0, symName: __ZNSt3__116allocator_traitsINS_9allocatorINS_11__tree_nodeINS_12__value_typeINS_12basic_stringIcNS_11char_traitsIcEENS1_IcEEEEM6ServerFvRKS8_R6ClientEEEPvEEEEE9constructB8ue170006INS_4pairISA_SF_EEJRKSN_EvEEvRSJ_PT_DpOT0_, symObjAddr: 0x1C898, symBinAddr: 0x100023D80, symSize: 0x34 }
  - { offsetInCU: 0x1FB8F, offset: 0x4FCA2, size: 0x8, addend: 0x0, symName: __ZNKSt3__110unique_ptrINS_11__tree_nodeINS_12__value_typeINS_12basic_stringIcNS_11char_traitsIcEENS_9allocatorIcEEEEM6ServerFvRKS8_R6ClientEEEPvEENS_22__tree_node_destructorINS6_ISI_EEEEEptB8ue170006Ev, symObjAddr: 0x1C8CC, symBinAddr: 0x100023DB4, symSize: 0x28 }
  - { offsetInCU: 0x1FBB3, offset: 0x4FCC6, size: 0x8, addend: 0x0, symName: __ZNSt3__110unique_ptrINS_11__tree_nodeINS_12__value_typeINS_12basic_stringIcNS_11char_traitsIcEENS_9allocatorIcEEEEM6ServerFvRKS8_R6ClientEEEPvEENS_22__tree_node_destructorINS6_ISI_EEEEE11get_deleterB8ue170006Ev, symObjAddr: 0x1C8F4, symBinAddr: 0x100023DDC, symSize: 0x24 }
  - { offsetInCU: 0x1FBD7, offset: 0x4FCEA, size: 0x8, addend: 0x0, symName: __ZNSt3__19allocatorINS_11__tree_nodeINS_12__value_typeINS_12basic_stringIcNS_11char_traitsIcEENS0_IcEEEEM6ServerFvRKS7_R6ClientEEEPvEEE8allocateB8ue170006Em, symObjAddr: 0x1C918, symBinAddr: 0x100023E00, symSize: 0x8C }
  - { offsetInCU: 0x1FC13, offset: 0x4FD26, size: 0x8, addend: 0x0, symName: __ZNSt3__116allocator_traitsINS_9allocatorINS_11__tree_nodeINS_12__value_typeINS_12basic_stringIcNS_11char_traitsIcEENS1_IcEEEEM6ServerFvRKS8_R6ClientEEEPvEEEEE8max_sizeB8ue170006ISJ_vEEmRKSJ_, symObjAddr: 0x1C9A4, symBinAddr: 0x100023E8C, symSize: 0x24 }
  - { offsetInCU: 0x1FC41, offset: 0x4FD54, size: 0x8, addend: 0x0, symName: __ZNKSt3__19allocatorINS_11__tree_nodeINS_12__value_typeINS_12basic_stringIcNS_11char_traitsIcEENS0_IcEEEEM6ServerFvRKS7_R6ClientEEEPvEEE8max_sizeB8ue170006Ev, symObjAddr: 0x1C9C8, symBinAddr: 0x100023EB0, symSize: 0x20 }
  - { offsetInCU: 0x1FC66, offset: 0x4FD79, size: 0x8, addend: 0x0, symName: __ZNSt3__122__tree_node_destructorINS_9allocatorINS_11__tree_nodeINS_12__value_typeINS_12basic_stringIcNS_11char_traitsIcEENS1_IcEEEEM6ServerFvRKS8_R6ClientEEEPvEEEEEC2B8ue170006ERSJ_b, symObjAddr: 0x1C9E8, symBinAddr: 0x100023ED0, symSize: 0x38 }
  - { offsetInCU: 0x1FCAD, offset: 0x4FDC0, size: 0x8, addend: 0x0, symName: __ZNSt3__110unique_ptrINS_11__tree_nodeINS_12__value_typeINS_12basic_stringIcNS_11char_traitsIcEENS_9allocatorIcEEEEM6ServerFvRKS8_R6ClientEEEPvEENS_22__tree_node_destructorINS6_ISI_EEEEEC2B8ue170006ILb1EvEEPSI_NS_16__dependent_typeINS_27__unique_ptr_deleter_sfinaeISL_EEXT_EE20__good_rval_ref_typeE, symObjAddr: 0x1CA20, symBinAddr: 0x100023F08, symSize: 0x5C }
  - { offsetInCU: 0x1FCFD, offset: 0x4FE10, size: 0x8, addend: 0x0, symName: __ZNSt3__117__compressed_pairIPNS_11__tree_nodeINS_12__value_typeINS_12basic_stringIcNS_11char_traitsIcEENS_9allocatorIcEEEEM6ServerFvRKS8_R6ClientEEEPvEENS_22__tree_node_destructorINS6_ISI_EEEEEC1B8ue170006IRSJ_SM_EEOT_OT0_, symObjAddr: 0x1CA7C, symBinAddr: 0x100023F64, symSize: 0x3C }
  - { offsetInCU: 0x1FD54, offset: 0x4FE67, size: 0x8, addend: 0x0, symName: __ZNSt3__117__compressed_pairIPNS_11__tree_nodeINS_12__value_typeINS_12basic_stringIcNS_11char_traitsIcEENS_9allocatorIcEEEEM6ServerFvRKS8_R6ClientEEEPvEENS_22__tree_node_destructorINS6_ISI_EEEEEC2B8ue170006IRSJ_SM_EEOT_OT0_, symObjAddr: 0x1CAB8, symBinAddr: 0x100023FA0, symSize: 0x48 }
  - { offsetInCU: 0x1FDAB, offset: 0x4FEBE, size: 0x8, addend: 0x0, symName: __ZNSt3__122__compressed_pair_elemIPNS_11__tree_nodeINS_12__value_typeINS_12basic_stringIcNS_11char_traitsIcEENS_9allocatorIcEEEEM6ServerFvRKS8_R6ClientEEEPvEELi0ELb0EEC2B8ue170006IRSJ_vEEOT_, symObjAddr: 0x1CB00, symBinAddr: 0x100023FE8, symSize: 0x24 }
  - { offsetInCU: 0x1FDEC, offset: 0x4FEFF, size: 0x8, addend: 0x0, symName: __ZNSt3__122__compressed_pair_elemINS_22__tree_node_destructorINS_9allocatorINS_11__tree_nodeINS_12__value_typeINS_12basic_stringIcNS_11char_traitsIcEENS2_IcEEEEM6ServerFvRKS9_R6ClientEEEPvEEEEEELi1ELb0EEC2B8ue170006ISL_vEEOT_, symObjAddr: 0x1CB24, symBinAddr: 0x10002400C, symSize: 0x24 }
  - { offsetInCU: 0x1FE2D, offset: 0x4FF40, size: 0x8, addend: 0x0, symName: __ZNSt3__19allocatorINS_11__tree_nodeINS_12__value_typeINS_12basic_stringIcNS_11char_traitsIcEENS0_IcEEEEM6ServerFvRKS7_R6ClientEEEPvEEE9constructB8ue170006INS_4pairIS9_SE_EEJRKSL_EEEvPT_DpOT0_, symObjAddr: 0x1CB48, symBinAddr: 0x100024030, symSize: 0x30 }
  - { offsetInCU: 0x1FE81, offset: 0x4FF94, size: 0x8, addend: 0x0, symName: __ZNSt3__14pairIKNS_12basic_stringIcNS_11char_traitsIcEENS_9allocatorIcEEEEM6ServerFvRS7_R6ClientEEC1B8ue170006ERKSE_, symObjAddr: 0x1CB78, symBinAddr: 0x100024060, symSize: 0x34 }
  - { offsetInCU: 0x1FEB5, offset: 0x4FFC8, size: 0x8, addend: 0x0, symName: __ZNSt3__14pairIKNS_12basic_stringIcNS_11char_traitsIcEENS_9allocatorIcEEEEM6ServerFvRS7_R6ClientEEC2B8ue170006ERKSE_, symObjAddr: 0x1CBAC, symBinAddr: 0x100024094, symSize: 0x48 }
  - { offsetInCU: 0x1FEE9, offset: 0x4FFFC, size: 0x8, addend: 0x0, symName: __ZNKSt3__117__compressed_pairIPNS_11__tree_nodeINS_12__value_typeINS_12basic_stringIcNS_11char_traitsIcEENS_9allocatorIcEEEEM6ServerFvRKS8_R6ClientEEEPvEENS_22__tree_node_destructorINS6_ISI_EEEEE5firstB8ue170006Ev, symObjAddr: 0x1CBF4, symBinAddr: 0x1000240DC, symSize: 0x24 }
  - { offsetInCU: 0x1FF0D, offset: 0x50020, size: 0x8, addend: 0x0, symName: __ZNKSt3__122__compressed_pair_elemIPNS_11__tree_nodeINS_12__value_typeINS_12basic_stringIcNS_11char_traitsIcEENS_9allocatorIcEEEEM6ServerFvRKS8_R6ClientEEEPvEELi0ELb0EE5__getB8ue170006Ev, symObjAddr: 0x1CC18, symBinAddr: 0x100024100, symSize: 0x14 }
  - { offsetInCU: 0x1FF32, offset: 0x50045, size: 0x8, addend: 0x0, symName: __ZNSt3__117__compressed_pairIPNS_11__tree_nodeINS_12__value_typeINS_12basic_stringIcNS_11char_traitsIcEENS_9allocatorIcEEEEM6ServerFvRKS8_R6ClientEEEPvEENS_22__tree_node_destructorINS6_ISI_EEEEE6secondB8ue170006Ev, symObjAddr: 0x1CC2C, symBinAddr: 0x100024114, symSize: 0x28 }
  - { offsetInCU: 0x1FF56, offset: 0x50069, size: 0x8, addend: 0x0, symName: __ZNSt3__122__compressed_pair_elemINS_22__tree_node_destructorINS_9allocatorINS_11__tree_nodeINS_12__value_typeINS_12basic_stringIcNS_11char_traitsIcEENS2_IcEEEEM6ServerFvRKS9_R6ClientEEEPvEEEEEELi1ELb0EE5__getB8ue170006Ev, symObjAddr: 0x1CC54, symBinAddr: 0x10002413C, symSize: 0x14 }
  - { offsetInCU: 0x1FF7B, offset: 0x5008E, size: 0x8, addend: 0x0, symName: __ZNSt3__16__treeINS_12__value_typeINS_12basic_stringIcNS_11char_traitsIcEENS_9allocatorIcEEEEM6ServerFvRKS7_R6ClientEEENS_19__map_value_compareIS7_SF_NS_4lessIS7_EELb1EEENS5_ISF_EEE4sizeB8ue170006Ev, symObjAddr: 0x1CC68, symBinAddr: 0x100024150, symSize: 0x28 }
  - { offsetInCU: 0x1FF9F, offset: 0x500B2, size: 0x8, addend: 0x0, symName: __ZNSt3__117__compressed_pairImNS_19__map_value_compareINS_12basic_stringIcNS_11char_traitsIcEENS_9allocatorIcEEEENS_12__value_typeIS7_M6ServerFvRKS7_R6ClientEEENS_4lessIS7_EELb1EEEE5firstB8ue170006Ev, symObjAddr: 0x1CC90, symBinAddr: 0x100024178, symSize: 0x24 }
  - { offsetInCU: 0x1FFC3, offset: 0x500D6, size: 0x8, addend: 0x0, symName: __ZNSt3__117__compressed_pairIPNS_11__tree_nodeINS_12__value_typeINS_12basic_stringIcNS_11char_traitsIcEENS_9allocatorIcEEEEM6ServerFvRKS8_R6ClientEEEPvEENS_22__tree_node_destructorINS6_ISI_EEEEE5firstB8ue170006Ev, symObjAddr: 0x1CCB4, symBinAddr: 0x10002419C, symSize: 0x24 }
  - { offsetInCU: 0x1FFE7, offset: 0x500FA, size: 0x8, addend: 0x0, symName: __ZNSt3__122__compressed_pair_elemIPNS_11__tree_nodeINS_12__value_typeINS_12basic_stringIcNS_11char_traitsIcEENS_9allocatorIcEEEEM6ServerFvRKS8_R6ClientEEEPvEELi0ELb0EE5__getB8ue170006Ev, symObjAddr: 0x1CCD8, symBinAddr: 0x1000241C0, symSize: 0x14 }
  - { offsetInCU: 0x2000C, offset: 0x5011F, size: 0x8, addend: 0x0, symName: __ZNSt3__110unique_ptrINS_11__tree_nodeINS_12__value_typeINS_12basic_stringIcNS_11char_traitsIcEENS_9allocatorIcEEEEM6ServerFvRKS8_R6ClientEEEPvEENS_22__tree_node_destructorINS6_ISI_EEEEED2B8ue170006Ev, symObjAddr: 0x1CCEC, symBinAddr: 0x1000241D4, symSize: 0x30 }
  - { offsetInCU: 0x20035, offset: 0x50148, size: 0x8, addend: 0x0, symName: __ZNSt3__110unique_ptrINS_11__tree_nodeINS_12__value_typeINS_12basic_stringIcNS_11char_traitsIcEENS_9allocatorIcEEEEM6ServerFvRKS8_R6ClientEEEPvEENS_22__tree_node_destructorINS6_ISI_EEEEE5resetB8ue170006EPSI_, symObjAddr: 0x1CD1C, symBinAddr: 0x100024204, symSize: 0x78 }
  - { offsetInCU: 0x20078, offset: 0x5018B, size: 0x8, addend: 0x0, symName: __ZNSt3__122__tree_node_destructorINS_9allocatorINS_11__tree_nodeINS_12__value_typeINS_12basic_stringIcNS_11char_traitsIcEENS1_IcEEEEM6ServerFvRKS8_R6ClientEEEPvEEEEEclB8ue170006EPSI_, symObjAddr: 0x1CD94, symBinAddr: 0x10002427C, symSize: 0xAC }
  - { offsetInCU: 0x200AB, offset: 0x501BE, size: 0x8, addend: 0x0, symName: __ZNSt3__115__tree_iteratorINS_12__value_typeINS_12basic_stringIcNS_11char_traitsIcEENS_9allocatorIcEEEEM6ServerFvRKS7_R6ClientEEEPNS_11__tree_nodeISF_PvEElEC2B8ue170006ESJ_, symObjAddr: 0x1CE40, symBinAddr: 0x100024328, symSize: 0x20 }
  - { offsetInCU: 0x200E3, offset: 0x501F6, size: 0x8, addend: 0x0, symName: __ZNSt3__14pairINS_15__tree_iteratorINS_12__value_typeINS_12basic_stringIcNS_11char_traitsIcEENS_9allocatorIcEEEEM6ServerFvRKS8_R6ClientEEEPNS_11__tree_nodeISG_PvEElEEbEC2B8ue170006ERKSL_RKb, symObjAddr: 0x1CE60, symBinAddr: 0x100024348, symSize: 0x38 }
  - { offsetInCU: 0x20128, offset: 0x5023B, size: 0x8, addend: 0x0, symName: __ZNSt3__14pairINS_14__map_iteratorINS_15__tree_iteratorINS_12__value_typeINS_12basic_stringIcNS_11char_traitsIcEENS_9allocatorIcEEEEM6ServerFvRKS9_R6ClientEEEPNS_11__tree_nodeISH_PvEElEEEEbEC2B8ue170006ISM_bEERKNS0_IT_T0_EE, symObjAddr: 0x1CE98, symBinAddr: 0x100024380, symSize: 0x50 }
  - { offsetInCU: 0x20171, offset: 0x50284, size: 0x8, addend: 0x0, symName: __ZNSt3__114__map_iteratorINS_15__tree_iteratorINS_12__value_typeINS_12basic_stringIcNS_11char_traitsIcEENS_9allocatorIcEEEEM6ServerFvRKS8_R6ClientEEEPNS_11__tree_nodeISG_PvEElEEEC1B8ue170006ESL_, symObjAddr: 0x1CEE8, symBinAddr: 0x1000243D0, symSize: 0x34 }
  - { offsetInCU: 0x201A9, offset: 0x502BC, size: 0x8, addend: 0x0, symName: __ZNSt3__114__map_iteratorINS_15__tree_iteratorINS_12__value_typeINS_12basic_stringIcNS_11char_traitsIcEENS_9allocatorIcEEEEM6ServerFvRKS8_R6ClientEEEPNS_11__tree_nodeISG_PvEElEEEC2B8ue170006ESL_, symObjAddr: 0x1CF1C, symBinAddr: 0x100024404, symSize: 0x20 }
  - { offsetInCU: 0x201E1, offset: 0x502F4, size: 0x8, addend: 0x0, symName: __ZNSt3__14pairIKNS_12basic_stringIcNS_11char_traitsIcEENS_9allocatorIcEEEEM6ServerFvRS7_R6ClientEEC2B8ue170006IPKcSD_EERKNS0_IT_T0_EE, symObjAddr: 0x1CF3C, symBinAddr: 0x100024424, symSize: 0x4C }
  - { offsetInCU: 0x2022A, offset: 0x5033D, size: 0x8, addend: 0x0, symName: __ZNSt3__16__treeINS_12__value_typeINS_12basic_stringIcNS_11char_traitsIcEENS_9allocatorIcEEEEM6ServerFvRKS7_R6ClientEEENS_19__map_value_compareIS7_SF_NS_4lessIS7_EELb1EEENS5_ISF_EEE4findIS7_EENS_15__tree_iteratorISF_PNS_11__tree_nodeISF_PvEElEERKT_, symObjAddr: 0x1CF88, symBinAddr: 0x100024470, symSize: 0xF8 }
  - { offsetInCU: 0x20279, offset: 0x5038C, size: 0x8, addend: 0x0, symName: __ZNSt3__16__treeINS_12__value_typeINS_12basic_stringIcNS_11char_traitsIcEENS_9allocatorIcEEEEM6ServerFvRKS7_R6ClientEEENS_19__map_value_compareIS7_SF_NS_4lessIS7_EELb1EEENS5_ISF_EEE13__lower_boundIS7_EENS_15__tree_iteratorISF_PNS_11__tree_nodeISF_PvEElEERKT_SR_PNS_15__tree_end_nodeIPNS_16__tree_node_baseISP_EEEE, symObjAddr: 0x1D080, symBinAddr: 0x100024568, symSize: 0xA4 }
  - { offsetInCU: 0x202D6, offset: 0x503E9, size: 0x8, addend: 0x0, symName: __ZNSt3__16__treeINS_12__value_typeINS_12basic_stringIcNS_11char_traitsIcEENS_9allocatorIcEEEEM6ServerFvRKS7_R6ClientEEENS_19__map_value_compareIS7_SF_NS_4lessIS7_EELb1EEENS5_ISF_EEE3endB8ue170006Ev, symObjAddr: 0x1D158, symBinAddr: 0x100024640, symSize: 0x34 }
  - { offsetInCU: 0x202FA, offset: 0x5040D, size: 0x8, addend: 0x0, symName: __ZNKSt3__115__tree_iteratorINS_12__value_typeINS_12basic_stringIcNS_11char_traitsIcEENS_9allocatorIcEEEEM6ServerFvRKS7_R6ClientEEEPNS_11__tree_nodeISF_PvEElEdeB8ue170006Ev, symObjAddr: 0x1D18C, symBinAddr: 0x100024674, symSize: 0x28 }
  - { offsetInCU: 0x2031E, offset: 0x50431, size: 0x8, addend: 0x0, symName: __ZNSt3__115__tree_iteratorINS_12__value_typeINS_12basic_stringIcNS_11char_traitsIcEENS_9allocatorIcEEEEM6ServerFvRKS7_R6ClientEEEPNS_11__tree_nodeISF_PvEElEC1B8ue170006EPNS_15__tree_end_nodeIPNS_16__tree_node_baseISH_EEEE, symObjAddr: 0x1D1B4, symBinAddr: 0x10002469C, symSize: 0x34 }
  - { offsetInCU: 0x20356, offset: 0x50469, size: 0x8, addend: 0x0, symName: __ZNSt3__115__tree_iteratorINS_12__value_typeINS_12basic_stringIcNS_11char_traitsIcEENS_9allocatorIcEEEEM6ServerFvRKS7_R6ClientEEEPNS_11__tree_nodeISF_PvEElEC2B8ue170006EPNS_15__tree_end_nodeIPNS_16__tree_node_baseISH_EEEE, symObjAddr: 0x1D1E8, symBinAddr: 0x1000246D0, symSize: 0x20 }
  - { offsetInCU: 0x2038E, offset: 0x504A1, size: 0x8, addend: 0x0, symName: __ZNKSt3__115__tree_iteratorINS_12__value_typeINS_12basic_stringIcNS_11char_traitsIcEENS_9allocatorIcEEEEM6ServerFvRKS7_R6ClientEEEPNS_11__tree_nodeISF_PvEElE8__get_npB8ue170006Ev, symObjAddr: 0x1D238, symBinAddr: 0x100024720, symSize: 0x18 }
  - { offsetInCU: 0x203B3, offset: 0x504C6, size: 0x8, addend: 0x0, symName: __ZNSt3__13mapINS_12basic_stringIcNS_11char_traitsIcEENS_9allocatorIcEEEEM6ServerFvRKS6_R6ClientENS_4lessIS6_EENS4_INS_4pairIS8_SD_EEEEE25__construct_node_with_keyES9_, symObjAddr: 0x1D250, symBinAddr: 0x100024738, symSize: 0x144 }
  - { offsetInCU: 0x2040A, offset: 0x5051D, size: 0x8, addend: 0x0, symName: __ZNKSt3__110unique_ptrINS_11__tree_nodeINS_12__value_typeINS_12basic_stringIcNS_11char_traitsIcEENS_9allocatorIcEEEEM6ServerFvRKS8_R6ClientEEEPvEENS_21__map_node_destructorINS6_ISI_EEEEE3getB8ue170006Ev, symObjAddr: 0x1D394, symBinAddr: 0x10002487C, symSize: 0x28 }
  - { offsetInCU: 0x2042E, offset: 0x50541, size: 0x8, addend: 0x0, symName: __ZNSt3__110unique_ptrINS_11__tree_nodeINS_12__value_typeINS_12basic_stringIcNS_11char_traitsIcEENS_9allocatorIcEEEEM6ServerFvRKS8_R6ClientEEEPvEENS_21__map_node_destructorINS6_ISI_EEEEE7releaseB8ue170006Ev, symObjAddr: 0x1D3BC, symBinAddr: 0x1000248A4, symSize: 0x44 }
  - { offsetInCU: 0x20462, offset: 0x50575, size: 0x8, addend: 0x0, symName: __ZNSt3__110unique_ptrINS_11__tree_nodeINS_12__value_typeINS_12basic_stringIcNS_11char_traitsIcEENS_9allocatorIcEEEEM6ServerFvRKS8_R6ClientEEEPvEENS_21__map_node_destructorINS6_ISI_EEEEED1B8ue170006Ev, symObjAddr: 0x1D400, symBinAddr: 0x1000248E8, symSize: 0x2C }
  - { offsetInCU: 0x2048B, offset: 0x5059E, size: 0x8, addend: 0x0, symName: __ZNSt3__121__map_node_destructorINS_9allocatorINS_11__tree_nodeINS_12__value_typeINS_12basic_stringIcNS_11char_traitsIcEENS1_IcEEEEM6ServerFvRKS8_R6ClientEEEPvEEEEEC1B8ue170006ERSJ_, symObjAddr: 0x1D42C, symBinAddr: 0x100024914, symSize: 0x34 }
  - { offsetInCU: 0x204C8, offset: 0x505DB, size: 0x8, addend: 0x0, symName: __ZNSt3__110unique_ptrINS_11__tree_nodeINS_12__value_typeINS_12basic_stringIcNS_11char_traitsIcEENS_9allocatorIcEEEEM6ServerFvRKS8_R6ClientEEEPvEENS_21__map_node_destructorINS6_ISI_EEEEEC1B8ue170006ILb1EvEEPSI_NS_16__dependent_typeINS_27__unique_ptr_deleter_sfinaeISL_EEXT_EE20__good_rval_ref_typeE, symObjAddr: 0x1D460, symBinAddr: 0x100024948, symSize: 0x3C }
  - { offsetInCU: 0x20518, offset: 0x5062B, size: 0x8, addend: 0x0, symName: __ZNSt3__116allocator_traitsINS_9allocatorINS_11__tree_nodeINS_12__value_typeINS_12basic_stringIcNS_11char_traitsIcEENS1_IcEEEEM6ServerFvRKS8_R6ClientEEEPvEEEEE9constructB8ue170006ISA_JSB_EvEEvRSJ_PT_DpOT0_, symObjAddr: 0x1D49C, symBinAddr: 0x100024984, symSize: 0x34 }
  - { offsetInCU: 0x2056F, offset: 0x50682, size: 0x8, addend: 0x0, symName: __ZNKSt3__110unique_ptrINS_11__tree_nodeINS_12__value_typeINS_12basic_stringIcNS_11char_traitsIcEENS_9allocatorIcEEEEM6ServerFvRKS8_R6ClientEEEPvEENS_21__map_node_destructorINS6_ISI_EEEEEptB8ue170006Ev, symObjAddr: 0x1D4D0, symBinAddr: 0x1000249B8, symSize: 0x28 }
  - { offsetInCU: 0x20593, offset: 0x506A6, size: 0x8, addend: 0x0, symName: __ZNSt3__110unique_ptrINS_11__tree_nodeINS_12__value_typeINS_12basic_stringIcNS_11char_traitsIcEENS_9allocatorIcEEEEM6ServerFvRKS8_R6ClientEEEPvEENS_21__map_node_destructorINS6_ISI_EEEEE11get_deleterB8ue170006Ev, symObjAddr: 0x1D4F8, symBinAddr: 0x1000249E0, symSize: 0x24 }
  - { offsetInCU: 0x205BC, offset: 0x506CF, size: 0x8, addend: 0x0, symName: __ZNSt3__116allocator_traitsINS_9allocatorINS_11__tree_nodeINS_12__value_typeINS_12basic_stringIcNS_11char_traitsIcEENS1_IcEEEEM6ServerFvRKS8_R6ClientEEEPvEEEEE9constructB8ue170006ISF_JEvEEvRSJ_PT_DpOT0_, symObjAddr: 0x1D51C, symBinAddr: 0x100024A04, symSize: 0x2C }
  - { offsetInCU: 0x205FE, offset: 0x50711, size: 0x8, addend: 0x0, symName: __ZNSt3__121__map_node_destructorINS_9allocatorINS_11__tree_nodeINS_12__value_typeINS_12basic_stringIcNS_11char_traitsIcEENS1_IcEEEEM6ServerFvRKS8_R6ClientEEEPvEEEEEC2B8ue170006ERSJ_, symObjAddr: 0x1D548, symBinAddr: 0x100024A30, symSize: 0x28 }
  - { offsetInCU: 0x20636, offset: 0x50749, size: 0x8, addend: 0x0, symName: __ZNSt3__110unique_ptrINS_11__tree_nodeINS_12__value_typeINS_12basic_stringIcNS_11char_traitsIcEENS_9allocatorIcEEEEM6ServerFvRKS8_R6ClientEEEPvEENS_21__map_node_destructorINS6_ISI_EEEEEC2B8ue170006ILb1EvEEPSI_NS_16__dependent_typeINS_27__unique_ptr_deleter_sfinaeISL_EEXT_EE20__good_rval_ref_typeE, symObjAddr: 0x1D570, symBinAddr: 0x100024A58, symSize: 0x5C }
  - { offsetInCU: 0x20686, offset: 0x50799, size: 0x8, addend: 0x0, symName: __ZNSt3__117__compressed_pairIPNS_11__tree_nodeINS_12__value_typeINS_12basic_stringIcNS_11char_traitsIcEENS_9allocatorIcEEEEM6ServerFvRKS8_R6ClientEEEPvEENS_21__map_node_destructorINS6_ISI_EEEEEC1B8ue170006IRSJ_SM_EEOT_OT0_, symObjAddr: 0x1D5CC, symBinAddr: 0x100024AB4, symSize: 0x3C }
  - { offsetInCU: 0x206DD, offset: 0x507F0, size: 0x8, addend: 0x0, symName: __ZNSt3__117__compressed_pairIPNS_11__tree_nodeINS_12__value_typeINS_12basic_stringIcNS_11char_traitsIcEENS_9allocatorIcEEEEM6ServerFvRKS8_R6ClientEEEPvEENS_21__map_node_destructorINS6_ISI_EEEEEC2B8ue170006IRSJ_SM_EEOT_OT0_, symObjAddr: 0x1D608, symBinAddr: 0x100024AF0, symSize: 0x48 }
  - { offsetInCU: 0x20734, offset: 0x50847, size: 0x8, addend: 0x0, symName: __ZNSt3__122__compressed_pair_elemINS_21__map_node_destructorINS_9allocatorINS_11__tree_nodeINS_12__value_typeINS_12basic_stringIcNS_11char_traitsIcEENS2_IcEEEEM6ServerFvRKS9_R6ClientEEEPvEEEEEELi1ELb0EEC2B8ue170006ISL_vEEOT_, symObjAddr: 0x1D650, symBinAddr: 0x100024B38, symSize: 0x24 }
  - { offsetInCU: 0x20775, offset: 0x50888, size: 0x8, addend: 0x0, symName: __ZNSt3__19allocatorINS_11__tree_nodeINS_12__value_typeINS_12basic_stringIcNS_11char_traitsIcEENS0_IcEEEEM6ServerFvRKS7_R6ClientEEEPvEEE9constructB8ue170006IS9_JSA_EEEvPT_DpOT0_, symObjAddr: 0x1D674, symBinAddr: 0x100024B5C, symSize: 0x30 }
  - { offsetInCU: 0x207C9, offset: 0x508DC, size: 0x8, addend: 0x0, symName: __ZNKSt3__117__compressed_pairIPNS_11__tree_nodeINS_12__value_typeINS_12basic_stringIcNS_11char_traitsIcEENS_9allocatorIcEEEEM6ServerFvRKS8_R6ClientEEEPvEENS_21__map_node_destructorINS6_ISI_EEEEE5firstB8ue170006Ev, symObjAddr: 0x1D6A4, symBinAddr: 0x100024B8C, symSize: 0x24 }
  - { offsetInCU: 0x207ED, offset: 0x50900, size: 0x8, addend: 0x0, symName: __ZNSt3__117__compressed_pairIPNS_11__tree_nodeINS_12__value_typeINS_12basic_stringIcNS_11char_traitsIcEENS_9allocatorIcEEEEM6ServerFvRKS8_R6ClientEEEPvEENS_21__map_node_destructorINS6_ISI_EEEEE6secondB8ue170006Ev, symObjAddr: 0x1D6C8, symBinAddr: 0x100024BB0, symSize: 0x28 }
  - { offsetInCU: 0x20811, offset: 0x50924, size: 0x8, addend: 0x0, symName: __ZNSt3__122__compressed_pair_elemINS_21__map_node_destructorINS_9allocatorINS_11__tree_nodeINS_12__value_typeINS_12basic_stringIcNS_11char_traitsIcEENS2_IcEEEEM6ServerFvRKS9_R6ClientEEEPvEEEEEELi1ELb0EE5__getB8ue170006Ev, symObjAddr: 0x1D6F0, symBinAddr: 0x100024BD8, symSize: 0x14 }
  - { offsetInCU: 0x20836, offset: 0x50949, size: 0x8, addend: 0x0, symName: __ZNSt3__19allocatorINS_11__tree_nodeINS_12__value_typeINS_12basic_stringIcNS_11char_traitsIcEENS0_IcEEEEM6ServerFvRKS7_R6ClientEEEPvEEE9constructB8ue170006ISE_JEEEvPT_DpOT0_, symObjAddr: 0x1D704, symBinAddr: 0x100024BEC, symSize: 0x20 }
  - { offsetInCU: 0x20877, offset: 0x5098A, size: 0x8, addend: 0x0, symName: __ZNSt3__117__compressed_pairIPNS_11__tree_nodeINS_12__value_typeINS_12basic_stringIcNS_11char_traitsIcEENS_9allocatorIcEEEEM6ServerFvRKS8_R6ClientEEEPvEENS_21__map_node_destructorINS6_ISI_EEEEE5firstB8ue170006Ev, symObjAddr: 0x1D724, symBinAddr: 0x100024C0C, symSize: 0x24 }
  - { offsetInCU: 0x2089B, offset: 0x509AE, size: 0x8, addend: 0x0, symName: __ZNSt3__110unique_ptrINS_11__tree_nodeINS_12__value_typeINS_12basic_stringIcNS_11char_traitsIcEENS_9allocatorIcEEEEM6ServerFvRKS8_R6ClientEEEPvEENS_21__map_node_destructorINS6_ISI_EEEEED2B8ue170006Ev, symObjAddr: 0x1D748, symBinAddr: 0x100024C30, symSize: 0x30 }
  - { offsetInCU: 0x208C4, offset: 0x509D7, size: 0x8, addend: 0x0, symName: __ZNSt3__110unique_ptrINS_11__tree_nodeINS_12__value_typeINS_12basic_stringIcNS_11char_traitsIcEENS_9allocatorIcEEEEM6ServerFvRKS8_R6ClientEEEPvEENS_21__map_node_destructorINS6_ISI_EEEEE5resetB8ue170006EPSI_, symObjAddr: 0x1D778, symBinAddr: 0x100024C60, symSize: 0x78 }
  - { offsetInCU: 0x20907, offset: 0x50A1A, size: 0x8, addend: 0x0, symName: __ZNSt3__121__map_node_destructorINS_9allocatorINS_11__tree_nodeINS_12__value_typeINS_12basic_stringIcNS_11char_traitsIcEENS1_IcEEEEM6ServerFvRKS8_R6ClientEEEPvEEEEEclB8ue170006EPSI_, symObjAddr: 0x1D7F0, symBinAddr: 0x100024CD8, symSize: 0xE4 }
  - { offsetInCU: 0x2093A, offset: 0x50A4D, size: 0x8, addend: 0x0, symName: __ZNSt3__116allocator_traitsINS_9allocatorINS_11__tree_nodeINS_12__value_typeINS_12basic_stringIcNS_11char_traitsIcEENS1_IcEEEEM6ServerFvRKS8_R6ClientEEEPvEEEEE7destroyB8ue170006ISF_vvEEvRSJ_PT_, symObjAddr: 0x1D8D4, symBinAddr: 0x100024DBC, symSize: 0x14 }
  - { offsetInCU: 0x20975, offset: 0x50A88, size: 0x8, addend: 0x0, symName: __ZNSt3__116allocator_traitsINS_9allocatorINS_11__tree_nodeINS_12__value_typeINS_12basic_stringIcNS_11char_traitsIcEENS1_IcEEEEM6ServerFvRKS8_R6ClientEEEPvEEEEE7destroyB8ue170006ISA_vvEEvRSJ_PT_, symObjAddr: 0x1D8E8, symBinAddr: 0x100024DD0, symSize: 0x28 }
  - { offsetInCU: 0x7C44, offset: 0x58A60, size: 0x8, addend: 0x0, symName: __ZNSt3__1neB8ue170006ERKNS_14__map_iteratorINS_15__tree_iteratorINS_12__value_typeINS_12basic_stringIcNS_11char_traitsIcEENS_9allocatorIcEEEEP6ClientEEPNS_11__tree_nodeISB_PvEElEEEESJ_, symObjAddr: 0x1C5C, symBinAddr: 0x1000269C4, symSize: 0x30 }
  - { offsetInCU: 0x7C81, offset: 0x58A9D, size: 0x8, addend: 0x0, symName: __ZNSt3__1eqB8ue170006ERKNS_14__map_iteratorINS_15__tree_iteratorINS_12__value_typeINS_12basic_stringIcNS_11char_traitsIcEENS_9allocatorIcEEEEP6ClientEEPNS_11__tree_nodeISB_PvEElEEEESJ_, symObjAddr: 0x224C, symBinAddr: 0x100026D64, symSize: 0x30 }
  - { offsetInCU: 0x7CBE, offset: 0x58ADA, size: 0x8, addend: 0x0, symName: __ZNSt3__1plB8ue170006IcNS_11char_traitsIcEENS_9allocatorIcEEEENS_12basic_stringIT_T0_T1_EES6_RKS9_, symObjAddr: 0x267C, symBinAddr: 0x100027194, symSize: 0x10C }
  - { offsetInCU: 0x7D53, offset: 0x58B6F, size: 0x8, addend: 0x0, symName: __ZNSt3__1plB8ue170006IcNS_11char_traitsIcEENS_9allocatorIcEEEENS_12basic_stringIT_T0_T1_EERKS9_S6_, symObjAddr: 0x5340, symBinAddr: 0x100029CE8, symSize: 0x110 }
  - { offsetInCU: 0x7DE8, offset: 0x58C04, size: 0x8, addend: 0x0, symName: __ZNSt3__1neB8ue170006ERKNS_15__tree_iteratorINS_12__value_typeINS_12basic_stringIcNS_11char_traitsIcEENS_9allocatorIcEEEEP6ClientEEPNS_11__tree_nodeISA_PvEElEESH_, symObjAddr: 0x8438, symBinAddr: 0x10002ACB4, symSize: 0x34 }
  - { offsetInCU: 0x7E25, offset: 0x58C41, size: 0x8, addend: 0x0, symName: __ZNSt3__1eqB8ue170006ERKNS_15__tree_iteratorINS_12__value_typeINS_12basic_stringIcNS_11char_traitsIcEENS_9allocatorIcEEEEP6ClientEEPNS_11__tree_nodeISA_PvEElEESH_, symObjAddr: 0x846C, symBinAddr: 0x10002ACE8, symSize: 0x30 }
  - { offsetInCU: 0xAB64, offset: 0x5B980, size: 0x8, addend: 0x0, symName: __ZN7ChannelC2Ev, symObjAddr: 0x0, symBinAddr: 0x100024DF8, symSize: 0x16C }
  - { offsetInCU: 0xAB8E, offset: 0x5B9AA, size: 0x8, addend: 0x0, symName: __ZNSt3__16vectorIiNS_9allocatorIiEEEC1B8ue170006Ev, symObjAddr: 0x198, symBinAddr: 0x100024F64, symSize: 0x2C }
  - { offsetInCU: 0xABB7, offset: 0x5B9D3, size: 0x8, addend: 0x0, symName: __ZNSt3__13mapINS_12basic_stringIcNS_11char_traitsIcEENS_9allocatorIcEEEEP6ClientNS_4lessIS6_EENS4_INS_4pairIKS6_S8_EEEEEC1B8ue170006Ev, symObjAddr: 0x1C4, symBinAddr: 0x100024F90, symSize: 0x2C }
  - { offsetInCU: 0xABE0, offset: 0x5B9FC, size: 0x8, addend: 0x0, symName: __ZNSt3__13mapINS_12basic_stringIcNS_11char_traitsIcEENS_9allocatorIcEEEEP6ClientNS_4lessIS6_EENS4_INS_4pairIKS6_S8_EEEEED1B8ue170006Ev, symObjAddr: 0x1F0, symBinAddr: 0x100024FBC, symSize: 0x2C }
  - { offsetInCU: 0xAC09, offset: 0x5BA25, size: 0x8, addend: 0x0, symName: __ZNSt3__16vectorIiNS_9allocatorIiEEED1B8ue170006Ev, symObjAddr: 0x228, symBinAddr: 0x100024FE8, symSize: 0x2C }
  - { offsetInCU: 0xAC32, offset: 0x5BA4E, size: 0x8, addend: 0x0, symName: __ZN7ChannelC1Ev, symObjAddr: 0x254, symBinAddr: 0x100025014, symSize: 0x2C }
  - { offsetInCU: 0xAC5C, offset: 0x5BA78, size: 0x8, addend: 0x0, symName: __ZN7ChannelC2ENSt3__112basic_stringIcNS0_11char_traitsIcEENS0_9allocatorIcEEEEP6Client, symObjAddr: 0x280, symBinAddr: 0x100025040, symSize: 0x2D4 }
  - { offsetInCU: 0xACA3, offset: 0x5BABF, size: 0x8, addend: 0x0, symName: __ZNSt3__13mapINS_12basic_stringIcNS_11char_traitsIcEENS_9allocatorIcEEEEP6ClientNS_4lessIS6_EENS4_INS_4pairIKS6_S8_EEEEE6insertB8ue170006ERKSD_, symObjAddr: 0x580, symBinAddr: 0x100025314, symSize: 0x4C }
  - { offsetInCU: 0xACEF, offset: 0x5BB0B, size: 0x8, addend: 0x0, symName: __ZNSt3__14pairINS_12basic_stringIcNS_11char_traitsIcEENS_9allocatorIcEEEEP6ClientEC1B8ue170006ERKS6_RKS8_, symObjAddr: 0x5CC, symBinAddr: 0x100025360, symSize: 0x3C }
  - { offsetInCU: 0xAD34, offset: 0x5BB50, size: 0x8, addend: 0x0, symName: __ZNSt3__14pairIKNS_12basic_stringIcNS_11char_traitsIcEENS_9allocatorIcEEEEP6ClientEC1B8ue170006IS6_S9_EERKNS0_IT_T0_EE, symObjAddr: 0x608, symBinAddr: 0x10002539C, symSize: 0x34 }
  - { offsetInCU: 0xAD7D, offset: 0x5BB99, size: 0x8, addend: 0x0, symName: __ZNSt3__14pairINS_12basic_stringIcNS_11char_traitsIcEENS_9allocatorIcEEEEP6ClientED1Ev, symObjAddr: 0x668, symBinAddr: 0x1000253D0, symSize: 0x2C }
  - { offsetInCU: 0xADA7, offset: 0x5BBC3, size: 0x8, addend: 0x0, symName: __ZN7Channel7setOperEP6Client, symObjAddr: 0x694, symBinAddr: 0x1000253FC, symSize: 0x798 }
  - { offsetInCU: 0xADF9, offset: 0x5BC15, size: 0x8, addend: 0x0, symName: __ZN7Channel7welcomeEP6Client, symObjAddr: 0xE2C, symBinAddr: 0x100025B94, symSize: 0xA54 }
  - { offsetInCU: 0xAE3C, offset: 0x5BC58, size: 0x8, addend: 0x0, symName: __ZN7ChannelC1ENSt3__112basic_stringIcNS0_11char_traitsIcEENS0_9allocatorIcEEEEP6Client, symObjAddr: 0x1880, symBinAddr: 0x1000265E8, symSize: 0x3C }
  - { offsetInCU: 0xAE83, offset: 0x5BC9F, size: 0x8, addend: 0x0, symName: __ZN7ChannelD2Ev, symObjAddr: 0x18BC, symBinAddr: 0x100026624, symSize: 0x168 }
  - { offsetInCU: 0xAEAD, offset: 0x5BCC9, size: 0x8, addend: 0x0, symName: __ZN7ChannelD1Ev, symObjAddr: 0x1A24, symBinAddr: 0x10002678C, symSize: 0x2C }
  - { offsetInCU: 0xAED7, offset: 0x5BCF3, size: 0x8, addend: 0x0, symName: __ZN7Channel17getInviteOnlyModeEv, symObjAddr: 0x1A50, symBinAddr: 0x1000267B8, symSize: 0x1C }
  - { offsetInCU: 0xAEFE, offset: 0x5BD1A, size: 0x8, addend: 0x0, symName: __ZN7Channel12getTopicModeEv, symObjAddr: 0x1A6C, symBinAddr: 0x1000267D4, symSize: 0x1C }
  - { offsetInCU: 0xAF25, offset: 0x5BD41, size: 0x8, addend: 0x0, symName: __ZN7Channel11getChanNameEv, symObjAddr: 0x1A88, symBinAddr: 0x1000267F0, symSize: 0x38 }
  - { offsetInCU: 0xAF4C, offset: 0x5BD68, size: 0x8, addend: 0x0, symName: __ZN7Channel10getHasPassEv, symObjAddr: 0x1AC0, symBinAddr: 0x100026828, symSize: 0x1C }
  - { offsetInCU: 0xAF73, offset: 0x5BD8F, size: 0x8, addend: 0x0, symName: __ZN7Channel8setTopicENSt3__112basic_stringIcNS0_11char_traitsIcEENS0_9allocatorIcEEEE, symObjAddr: 0x1ADC, symBinAddr: 0x100026844, symSize: 0x30 }
  - { offsetInCU: 0xAFA9, offset: 0x5BDC5, size: 0x8, addend: 0x0, symName: __ZN7Channel8getTopicEv, symObjAddr: 0x1B0C, symBinAddr: 0x100026874, symSize: 0x3C }
  - { offsetInCU: 0xAFD0, offset: 0x5BDEC, size: 0x8, addend: 0x0, symName: __ZN7Channel9getUsrLimEv, symObjAddr: 0x1B48, symBinAddr: 0x1000268B0, symSize: 0x18 }
  - { offsetInCU: 0xAFF7, offset: 0x5BE13, size: 0x8, addend: 0x0, symName: __ZN7Channel7getSizeEv, symObjAddr: 0x1B60, symBinAddr: 0x1000268C8, symSize: 0x98 }
  - { offsetInCU: 0xB03A, offset: 0x5BE56, size: 0x8, addend: 0x0, symName: __ZNSt3__114__map_iteratorINS_15__tree_iteratorINS_12__value_typeINS_12basic_stringIcNS_11char_traitsIcEENS_9allocatorIcEEEEP6ClientEEPNS_11__tree_nodeISB_PvEElEEEC1B8ue170006Ev, symObjAddr: 0x1BF8, symBinAddr: 0x100026960, symSize: 0x2C }
  - { offsetInCU: 0xB063, offset: 0x5BE7F, size: 0x8, addend: 0x0, symName: __ZNSt3__13mapINS_12basic_stringIcNS_11char_traitsIcEENS_9allocatorIcEEEEP6ClientNS_4lessIS6_EENS4_INS_4pairIKS6_S8_EEEEE5beginB8ue170006Ev, symObjAddr: 0x1C24, symBinAddr: 0x10002698C, symSize: 0x38 }
  - { offsetInCU: 0xB087, offset: 0x5BEA3, size: 0x8, addend: 0x0, symName: __ZNSt3__13mapINS_12basic_stringIcNS_11char_traitsIcEENS_9allocatorIcEEEEP6ClientNS_4lessIS6_EENS4_INS_4pairIKS6_S8_EEEEE3endB8ue170006Ev, symObjAddr: 0x1C8C, symBinAddr: 0x1000269F4, symSize: 0x38 }
  - { offsetInCU: 0xB0AB, offset: 0x5BEC7, size: 0x8, addend: 0x0, symName: __ZNSt3__114__map_iteratorINS_15__tree_iteratorINS_12__value_typeINS_12basic_stringIcNS_11char_traitsIcEENS_9allocatorIcEEEEP6ClientEEPNS_11__tree_nodeISB_PvEElEEEppB8ue170006Ei, symObjAddr: 0x1CC4, symBinAddr: 0x100026A2C, symSize: 0x34 }
  - { offsetInCU: 0xB0EB, offset: 0x5BF07, size: 0x8, addend: 0x0, symName: __ZN7Channel6getKeyEv, symObjAddr: 0x1CF8, symBinAddr: 0x100026A60, symSize: 0x3C }
  - { offsetInCU: 0xB112, offset: 0x5BF2E, size: 0x8, addend: 0x0, symName: __ZN7Channel8isInChanEP6Client, symObjAddr: 0x1D34, symBinAddr: 0x100026A9C, symSize: 0xF4 }
  - { offsetInCU: 0xB147, offset: 0x5BF63, size: 0x8, addend: 0x0, symName: __ZNSt3__13mapINS_12basic_stringIcNS_11char_traitsIcEENS_9allocatorIcEEEEP6ClientNS_4lessIS6_EENS4_INS_4pairIKS6_S8_EEEEE4findB8ue170006ERSC_, symObjAddr: 0x1E28, symBinAddr: 0x100026B90, symSize: 0x40 }
  - { offsetInCU: 0xB17A, offset: 0x5BF96, size: 0x8, addend: 0x0, symName: __ZNKSt3__13mapINS_12basic_stringIcNS_11char_traitsIcEENS_9allocatorIcEEEEP6ClientNS_4lessIS6_EENS4_INS_4pairIKS6_S8_EEEEE5emptyB8ue170006Ev, symObjAddr: 0x1E68, symBinAddr: 0x100026BD0, symSize: 0x34 }
  - { offsetInCU: 0xB19E, offset: 0x5BFBA, size: 0x8, addend: 0x0, symName: __ZN7Channel5eraseEv, symObjAddr: 0x20EC, symBinAddr: 0x100026C04, symSize: 0x44 }
  - { offsetInCU: 0xB1C5, offset: 0x5BFE1, size: 0x8, addend: 0x0, symName: __ZNSt3__13mapINS_12basic_stringIcNS_11char_traitsIcEENS_9allocatorIcEEEEP6ClientNS_4lessIS6_EENS4_INS_4pairIKS6_S8_EEEEE5clearB8ue170006Ev, symObjAddr: 0x2130, symBinAddr: 0x100026C48, symSize: 0x24 }
  - { offsetInCU: 0xB1E9, offset: 0x5C005, size: 0x8, addend: 0x0, symName: __ZN7Channel6isOperEP6Client, symObjAddr: 0x2154, symBinAddr: 0x100026C6C, symSize: 0xF8 }
  - { offsetInCU: 0xB22C, offset: 0x5C048, size: 0x8, addend: 0x0, symName: __ZN7Channel9isInvitedEP6Client, symObjAddr: 0x227C, symBinAddr: 0x100026D94, symSize: 0xF8 }
  - { offsetInCU: 0xB26F, offset: 0x5C08B, size: 0x8, addend: 0x0, symName: __ZN7Channel13getMemberListEv, symObjAddr: 0x2374, symBinAddr: 0x100026E8C, symSize: 0x2DC }
  - { offsetInCU: 0xB2B3, offset: 0x5C0CF, size: 0x8, addend: 0x0, symName: __ZNKSt3__114__map_iteratorINS_15__tree_iteratorINS_12__value_typeINS_12basic_stringIcNS_11char_traitsIcEENS_9allocatorIcEEEEP6ClientEEPNS_11__tree_nodeISB_PvEElEEEptB8ue170006Ev, symObjAddr: 0x2650, symBinAddr: 0x100027168, symSize: 0x2C }
  - { offsetInCU: 0xB2D7, offset: 0x5C0F3, size: 0x8, addend: 0x0, symName: __ZNSt3__112basic_stringIcNS_11char_traitsIcEENS_9allocatorIcEEEpLB8ue170006ERKS5_, symObjAddr: 0x2788, symBinAddr: 0x1000272A0, symSize: 0x2C }
  - { offsetInCU: 0xB30A, offset: 0x5C126, size: 0x8, addend: 0x0, symName: __ZN7Channel13validEntranceEP6ClientNSt3__112basic_stringIcNS2_11char_traitsIcEENS2_9allocatorIcEEEE, symObjAddr: 0x27B4, symBinAddr: 0x1000272CC, symSize: 0x64C }
  - { offsetInCU: 0xB34E, offset: 0x5C16A, size: 0x8, addend: 0x0, symName: __ZN7Channel9addMemberEP6ClientNSt3__112basic_stringIcNS2_11char_traitsIcEENS2_9allocatorIcEEEE, symObjAddr: 0x2E4C, symBinAddr: 0x100027918, symSize: 0x5D8 }
  - { offsetInCU: 0xB392, offset: 0x5C1AE, size: 0x8, addend: 0x0, symName: __ZNSt3__13mapINS_12basic_stringIcNS_11char_traitsIcEENS_9allocatorIcEEEEP6ClientNS_4lessIS6_EENS4_INS_4pairIKS6_S8_EEEEE5eraseB8ue170006ERSC_, symObjAddr: 0x3424, symBinAddr: 0x100027EF0, symSize: 0x2C }
  - { offsetInCU: 0xB3C5, offset: 0x5C1E1, size: 0x8, addend: 0x0, symName: __ZN7Channel9sendToAllER6ClientNSt3__112basic_stringIcNS2_11char_traitsIcEENS2_9allocatorIcEEEES8_b, symObjAddr: 0x3450, symBinAddr: 0x100027F1C, symSize: 0x1A8 }
  - { offsetInCU: 0xB44F, offset: 0x5C26B, size: 0x8, addend: 0x0, symName: __ZN7Channel10kickMemberEP6ClientRKNSt3__112basic_stringIcNS2_11char_traitsIcEENS2_9allocatorIcEEEES1_, symObjAddr: 0x36B8, symBinAddr: 0x1000280C4, symSize: 0x1260 }
  - { offsetInCU: 0xB4B3, offset: 0x5C2CF, size: 0x8, addend: 0x0, symName: __ZNSt3__13mapINS_12basic_stringIcNS_11char_traitsIcEENS_9allocatorIcEEEEP6ClientNS_4lessIS6_EENS4_INS_4pairIKS6_S8_EEEEE5eraseB8ue170006ENS_14__map_iteratorINS_15__tree_iteratorINS_12__value_typeIS6_S8_EEPNS_11__tree_nodeISJ_PvEElEEEE, symObjAddr: 0x494C, symBinAddr: 0x100029324, symSize: 0x5C }
  - { offsetInCU: 0xB4E6, offset: 0x5C302, size: 0x8, addend: 0x0, symName: __ZN7Channel10memberQuitEP6ClientRKNSt3__112basic_stringIcNS2_11char_traitsIcEENS2_9allocatorIcEEEE, symObjAddr: 0x49A8, symBinAddr: 0x100029380, symSize: 0x5B0 }
  - { offsetInCU: 0xB554, offset: 0x5C370, size: 0x8, addend: 0x0, symName: __ZN7Channel11addToInviteENSt3__112basic_stringIcNS0_11char_traitsIcEENS0_9allocatorIcEEEEP6ClientS8_, symObjAddr: 0x4F58, symBinAddr: 0x100029930, symSize: 0x3B8 }
  - { offsetInCU: 0xB5A7, offset: 0x5C3C3, size: 0x8, addend: 0x0, symName: __ZN7Channel13change_in_allENSt3__112basic_stringIcNS0_11char_traitsIcEENS0_9allocatorIcEEEER6ClientS6_, symObjAddr: 0x5450, symBinAddr: 0x100029DF8, symSize: 0x594 }
  - { offsetInCU: 0xB5FE, offset: 0x5C41A, size: 0x8, addend: 0x0, symName: __ZNSt3__13mapINS_12basic_stringIcNS_11char_traitsIcEENS_9allocatorIcEEEEP6ClientNS_4lessIS6_EENS4_INS_4pairIKS6_S8_EEEEEixERSC_, symObjAddr: 0x59E4, symBinAddr: 0x10002A38C, symSize: 0xC8 }
  - { offsetInCU: 0xB679, offset: 0x5C495, size: 0x8, addend: 0x0, symName: __ZNSt3__14pairINS_12basic_stringIcNS_11char_traitsIcEENS_9allocatorIcEEEEP6ClientED2Ev, symObjAddr: 0x5AD8, symBinAddr: 0x10002A454, symSize: 0x2C }
  - { offsetInCU: 0xB6A8, offset: 0x5C4C4, size: 0x8, addend: 0x0, symName: __ZNSt3__16vectorIiNS_9allocatorIiEEEC2B8ue170006Ev, symObjAddr: 0x609C, symBinAddr: 0x10002A480, symSize: 0x44 }
  - { offsetInCU: 0xB6D6, offset: 0x5C4F2, size: 0x8, addend: 0x0, symName: __ZNSt3__117__compressed_pairIPiNS_9allocatorIiEEEC1B8ue170006IDnNS_18__default_init_tagEEEOT_OT0_, symObjAddr: 0x60E0, symBinAddr: 0x10002A4C4, symSize: 0x3C }
  - { offsetInCU: 0xB72D, offset: 0x5C549, size: 0x8, addend: 0x0, symName: __ZNSt3__117__compressed_pairIPiNS_9allocatorIiEEEC2B8ue170006IDnNS_18__default_init_tagEEEOT_OT0_, symObjAddr: 0x611C, symBinAddr: 0x10002A500, symSize: 0x40 }
  - { offsetInCU: 0xB785, offset: 0x5C5A1, size: 0x8, addend: 0x0, symName: __ZNSt3__122__compressed_pair_elemIPiLi0ELb0EEC2B8ue170006IDnvEEOT_, symObjAddr: 0x615C, symBinAddr: 0x10002A540, symSize: 0x1C }
  - { offsetInCU: 0xB7C5, offset: 0x5C5E1, size: 0x8, addend: 0x0, symName: __ZNSt3__122__compressed_pair_elemINS_9allocatorIiEELi1ELb1EEC2B8ue170006ENS_18__default_init_tagE, symObjAddr: 0x6178, symBinAddr: 0x10002A55C, symSize: 0x2C }
  - { offsetInCU: 0xB7F9, offset: 0x5C615, size: 0x8, addend: 0x0, symName: __ZNSt3__19allocatorIiEC2B8ue170006Ev, symObjAddr: 0x61A4, symBinAddr: 0x10002A588, symSize: 0x2C }
  - { offsetInCU: 0xB823, offset: 0x5C63F, size: 0x8, addend: 0x0, symName: __ZNSt3__116__non_trivial_ifILb1ENS_9allocatorIiEEEC2B8ue170006Ev, symObjAddr: 0x61D0, symBinAddr: 0x10002A5B4, symSize: 0x14 }
  - { offsetInCU: 0xB84B, offset: 0x5C667, size: 0x8, addend: 0x0, symName: __ZNSt3__13mapINS_12basic_stringIcNS_11char_traitsIcEENS_9allocatorIcEEEEP6ClientNS_4lessIS6_EENS4_INS_4pairIKS6_S8_EEEEEC2B8ue170006Ev, symObjAddr: 0x61E4, symBinAddr: 0x10002A5C8, symSize: 0x40 }
  - { offsetInCU: 0xB874, offset: 0x5C690, size: 0x8, addend: 0x0, symName: __ZNSt3__119__map_value_compareINS_12basic_stringIcNS_11char_traitsIcEENS_9allocatorIcEEEENS_12__value_typeIS6_P6ClientEENS_4lessIS6_EELb1EEC1B8ue170006ESC_, symObjAddr: 0x6224, symBinAddr: 0x10002A608, symSize: 0x2C }
  - { offsetInCU: 0xB8AD, offset: 0x5C6C9, size: 0x8, addend: 0x0, symName: __ZNSt3__16__treeINS_12__value_typeINS_12basic_stringIcNS_11char_traitsIcEENS_9allocatorIcEEEEP6ClientEENS_19__map_value_compareIS7_SA_NS_4lessIS7_EELb1EEENS5_ISA_EEEC1ERKSE_, symObjAddr: 0x6250, symBinAddr: 0x10002A634, symSize: 0x34 }
  - { offsetInCU: 0xB8E7, offset: 0x5C703, size: 0x8, addend: 0x0, symName: __ZNSt3__119__map_value_compareINS_12basic_stringIcNS_11char_traitsIcEENS_9allocatorIcEEEENS_12__value_typeIS6_P6ClientEENS_4lessIS6_EELb1EEC2B8ue170006ESC_, symObjAddr: 0x6284, symBinAddr: 0x10002A668, symSize: 0x14 }
  - { offsetInCU: 0xB91F, offset: 0x5C73B, size: 0x8, addend: 0x0, symName: __ZNSt3__16__treeINS_12__value_typeINS_12basic_stringIcNS_11char_traitsIcEENS_9allocatorIcEEEEP6ClientEENS_19__map_value_compareIS7_SA_NS_4lessIS7_EELb1EEENS5_ISA_EEEC2ERKSE_, symObjAddr: 0x6298, symBinAddr: 0x10002A67C, symSize: 0x70 }
  - { offsetInCU: 0xB958, offset: 0x5C774, size: 0x8, addend: 0x0, symName: __ZNSt3__117__compressed_pairINS_15__tree_end_nodeIPNS_16__tree_node_baseIPvEEEENS_9allocatorINS_11__tree_nodeINS_12__value_typeINS_12basic_stringIcNS_11char_traitsIcEENS7_IcEEEEP6ClientEES3_EEEEEC1B8ue170006ILb1EvEEv, symObjAddr: 0x6308, symBinAddr: 0x10002A6EC, symSize: 0x2C }
  - { offsetInCU: 0xB991, offset: 0x5C7AD, size: 0x8, addend: 0x0, symName: __ZNSt3__117__compressed_pairImNS_19__map_value_compareINS_12basic_stringIcNS_11char_traitsIcEENS_9allocatorIcEEEENS_12__value_typeIS7_P6ClientEENS_4lessIS7_EELb1EEEEC1B8ue170006IiRKSE_EEOT_OT0_, symObjAddr: 0x6334, symBinAddr: 0x10002A718, symSize: 0x3C }
  - { offsetInCU: 0xB9E8, offset: 0x5C804, size: 0x8, addend: 0x0, symName: __ZNSt3__117__compressed_pairINS_15__tree_end_nodeIPNS_16__tree_node_baseIPvEEEENS_9allocatorINS_11__tree_nodeINS_12__value_typeINS_12basic_stringIcNS_11char_traitsIcEENS7_IcEEEEP6ClientEES3_EEEEEC2B8ue170006ILb1EvEEv, symObjAddr: 0x63B0, symBinAddr: 0x10002A754, symSize: 0x34 }
  - { offsetInCU: 0xBA1C, offset: 0x5C838, size: 0x8, addend: 0x0, symName: __ZNSt3__122__compressed_pair_elemINS_9allocatorINS_11__tree_nodeINS_12__value_typeINS_12basic_stringIcNS_11char_traitsIcEENS1_IcEEEEP6ClientEEPvEEEELi1ELb1EEC2B8ue170006ENS_16__value_init_tagE, symObjAddr: 0x6410, symBinAddr: 0x10002A788, symSize: 0x2C }
  - { offsetInCU: 0xBA50, offset: 0x5C86C, size: 0x8, addend: 0x0, symName: __ZNSt3__19allocatorINS_11__tree_nodeINS_12__value_typeINS_12basic_stringIcNS_11char_traitsIcEENS0_IcEEEEP6ClientEEPvEEEC2B8ue170006Ev, symObjAddr: 0x6480, symBinAddr: 0x10002A7B4, symSize: 0x2C }
  - { offsetInCU: 0xBA7A, offset: 0x5C896, size: 0x8, addend: 0x0, symName: __ZNSt3__116__non_trivial_ifILb1ENS_9allocatorINS_11__tree_nodeINS_12__value_typeINS_12basic_stringIcNS_11char_traitsIcEENS1_IcEEEEP6ClientEEPvEEEEEC2B8ue170006Ev, symObjAddr: 0x64AC, symBinAddr: 0x10002A7E0, symSize: 0x14 }
  - { offsetInCU: 0xBAA2, offset: 0x5C8BE, size: 0x8, addend: 0x0, symName: __ZNSt3__117__compressed_pairImNS_19__map_value_compareINS_12basic_stringIcNS_11char_traitsIcEENS_9allocatorIcEEEENS_12__value_typeIS7_P6ClientEENS_4lessIS7_EELb1EEEEC2B8ue170006IiRKSE_EEOT_OT0_, symObjAddr: 0x64C0, symBinAddr: 0x10002A7F4, symSize: 0x44 }
  - { offsetInCU: 0xBAFA, offset: 0x5C916, size: 0x8, addend: 0x0, symName: __ZNSt3__122__compressed_pair_elemINS_19__map_value_compareINS_12basic_stringIcNS_11char_traitsIcEENS_9allocatorIcEEEENS_12__value_typeIS7_P6ClientEENS_4lessIS7_EELb1EEELi1ELb1EEC2B8ue170006IRKSE_vEEOT_, symObjAddr: 0x6528, symBinAddr: 0x10002A838, symSize: 0x18 }
  - { offsetInCU: 0xBB3A, offset: 0x5C956, size: 0x8, addend: 0x0, symName: __ZNSt3__16vectorIiNS_9allocatorIiEEED2B8ue170006Ev, symObjAddr: 0x658C, symBinAddr: 0x10002A850, symSize: 0x3C }
  - { offsetInCU: 0xBB63, offset: 0x5C97F, size: 0x8, addend: 0x0, symName: __ZNSt3__16vectorIiNS_9allocatorIiEEE16__destroy_vectorC1B8ue170006ERS3_, symObjAddr: 0x65C8, symBinAddr: 0x10002A88C, symSize: 0x34 }
  - { offsetInCU: 0xBB9B, offset: 0x5C9B7, size: 0x8, addend: 0x0, symName: __ZNSt3__16vectorIiNS_9allocatorIiEEE16__destroy_vectorclB8ue170006Ev, symObjAddr: 0x65FC, symBinAddr: 0x10002A8C0, symSize: 0x90 }
  - { offsetInCU: 0xBBC0, offset: 0x5C9DC, size: 0x8, addend: 0x0, symName: __ZNSt3__16vectorIiNS_9allocatorIiEEE16__destroy_vectorC2B8ue170006ERS3_, symObjAddr: 0x668C, symBinAddr: 0x10002A950, symSize: 0x20 }
  - { offsetInCU: 0xBBF7, offset: 0x5CA13, size: 0x8, addend: 0x0, symName: __ZNSt3__13mapINS_12basic_stringIcNS_11char_traitsIcEENS_9allocatorIcEEEEP6ClientNS_4lessIS6_EENS4_INS_4pairIKS6_S8_EEEEED2B8ue170006Ev, symObjAddr: 0x6B10, symBinAddr: 0x10002A970, symSize: 0x2C }
  - { offsetInCU: 0xBC21, offset: 0x5CA3D, size: 0x8, addend: 0x0, symName: __ZNSt3__16__treeINS_12__value_typeINS_12basic_stringIcNS_11char_traitsIcEENS_9allocatorIcEEEEP6ClientEENS_19__map_value_compareIS7_SA_NS_4lessIS7_EELb1EEENS5_ISA_EEED1Ev, symObjAddr: 0x6B3C, symBinAddr: 0x10002A99C, symSize: 0x2C }
  - { offsetInCU: 0xBC4C, offset: 0x5CA68, size: 0x8, addend: 0x0, symName: __ZNSt3__16__treeINS_12__value_typeINS_12basic_stringIcNS_11char_traitsIcEENS_9allocatorIcEEEEP6ClientEENS_19__map_value_compareIS7_SA_NS_4lessIS7_EELb1EEENS5_ISA_EEED2Ev, symObjAddr: 0x6B68, symBinAddr: 0x10002A9C8, symSize: 0x38 }
  - { offsetInCU: 0xBC76, offset: 0x5CA92, size: 0x8, addend: 0x0, symName: __ZNSt3__14pairINS_12basic_stringIcNS_11char_traitsIcEENS_9allocatorIcEEEEP6ClientEC2B8ue170006ERKS6_RKS8_, symObjAddr: 0x6E50, symBinAddr: 0x10002AA00, symSize: 0x44 }
  - { offsetInCU: 0xBCBB, offset: 0x5CAD7, size: 0x8, addend: 0x0, symName: __ZNSt3__16__treeINS_12__value_typeINS_12basic_stringIcNS_11char_traitsIcEENS_9allocatorIcEEEEP6ClientEENS_19__map_value_compareIS7_SA_NS_4lessIS7_EELb1EEENS5_ISA_EEE15__insert_uniqueB8ue170006ERKNS_4pairIKS7_S9_EE, symObjAddr: 0x6E94, symBinAddr: 0x10002AA44, symSize: 0x50 }
  - { offsetInCU: 0xBCEE, offset: 0x5CB0A, size: 0x8, addend: 0x0, symName: __ZNSt3__14pairINS_14__map_iteratorINS_15__tree_iteratorINS_12__value_typeINS_12basic_stringIcNS_11char_traitsIcEENS_9allocatorIcEEEEP6ClientEEPNS_11__tree_nodeISC_PvEElEEEEbEC1B8ue170006ISH_bEERKNS0_IT_T0_EE, symObjAddr: 0x6EE4, symBinAddr: 0x10002AA94, symSize: 0x34 }
  - { offsetInCU: 0xBD38, offset: 0x5CB54, size: 0x8, addend: 0x0, symName: __ZNSt3__16__treeINS_12__value_typeINS_12basic_stringIcNS_11char_traitsIcEENS_9allocatorIcEEEEP6ClientEENS_19__map_value_compareIS7_SA_NS_4lessIS7_EELb1EEENS5_ISA_EEE25__emplace_unique_key_argsIS7_JRKNS_4pairIKS7_S9_EEEEENSI_INS_15__tree_iteratorISA_PNS_11__tree_nodeISA_PvEElEEbEERKT_DpOT0_, symObjAddr: 0x6F18, symBinAddr: 0x10002AAC8, symSize: 0xF0 }
  - { offsetInCU: 0xBDF1, offset: 0x5CC0D, size: 0x8, addend: 0x0, symName: __ZNSt3__14pairINS_14__map_iteratorINS_15__tree_iteratorINS_12__value_typeINS_12basic_stringIcNS_11char_traitsIcEENS_9allocatorIcEEEEP6ClientEEPNS_11__tree_nodeISC_PvEElEEEEbEC2B8ue170006ISH_bEERKNS0_IT_T0_EE, symObjAddr: 0x822C, symBinAddr: 0x10002ABB8, symSize: 0x50 }
  - { offsetInCU: 0xBE3A, offset: 0x5CC56, size: 0x8, addend: 0x0, symName: __ZNSt3__14pairIKNS_12basic_stringIcNS_11char_traitsIcEENS_9allocatorIcEEEEP6ClientEC2B8ue170006IS6_S9_EERKNS0_IT_T0_EE, symObjAddr: 0x82D0, symBinAddr: 0x10002AC08, symSize: 0x40 }
  - { offsetInCU: 0xBE83, offset: 0x5CC9F, size: 0x8, addend: 0x0, symName: __ZNSt3__114__map_iteratorINS_15__tree_iteratorINS_12__value_typeINS_12basic_stringIcNS_11char_traitsIcEENS_9allocatorIcEEEEP6ClientEEPNS_11__tree_nodeISB_PvEElEEEC2B8ue170006Ev, symObjAddr: 0x8310, symBinAddr: 0x10002AC48, symSize: 0x2C }
  - { offsetInCU: 0xBEAC, offset: 0x5CCC8, size: 0x8, addend: 0x0, symName: __ZNSt3__115__tree_iteratorINS_12__value_typeINS_12basic_stringIcNS_11char_traitsIcEENS_9allocatorIcEEEEP6ClientEEPNS_11__tree_nodeISA_PvEElEC1B8ue170006Ev, symObjAddr: 0x833C, symBinAddr: 0x10002AC74, symSize: 0x2C }
  - { offsetInCU: 0xBED6, offset: 0x5CCF2, size: 0x8, addend: 0x0, symName: __ZNSt3__115__tree_iteratorINS_12__value_typeINS_12basic_stringIcNS_11char_traitsIcEENS_9allocatorIcEEEEP6ClientEEPNS_11__tree_nodeISA_PvEElEC2B8ue170006Ev, symObjAddr: 0x8368, symBinAddr: 0x10002ACA0, symSize: 0x14 }
  - { offsetInCU: 0xBEFE, offset: 0x5CD1A, size: 0x8, addend: 0x0, symName: __ZNSt3__114__map_iteratorINS_15__tree_iteratorINS_12__value_typeINS_12basic_stringIcNS_11char_traitsIcEENS_9allocatorIcEEEEP6ClientEEPNS_11__tree_nodeISB_PvEElEEEppB8ue170006Ev, symObjAddr: 0x849C, symBinAddr: 0x10002AD18, symSize: 0x2C }
  - { offsetInCU: 0xBF22, offset: 0x5CD3E, size: 0x8, addend: 0x0, symName: __ZNSt3__115__tree_iteratorINS_12__value_typeINS_12basic_stringIcNS_11char_traitsIcEENS_9allocatorIcEEEEP6ClientEEPNS_11__tree_nodeISA_PvEElEppB8ue170006Ev, symObjAddr: 0x84C8, symBinAddr: 0x10002AD44, symSize: 0x38 }
  - { offsetInCU: 0xBF47, offset: 0x5CD63, size: 0x8, addend: 0x0, symName: __ZNSt3__16__treeINS_12__value_typeINS_12basic_stringIcNS_11char_traitsIcEENS_9allocatorIcEEEEP6ClientEENS_19__map_value_compareIS7_SA_NS_4lessIS7_EELb1EEENS5_ISA_EEE4findIS7_EENS_15__tree_iteratorISA_PNS_11__tree_nodeISA_PvEElEERKT_, symObjAddr: 0x85C0, symBinAddr: 0x10002AD7C, symSize: 0xF8 }
  - { offsetInCU: 0xBF96, offset: 0x5CDB2, size: 0x8, addend: 0x0, symName: __ZNSt3__16__treeINS_12__value_typeINS_12basic_stringIcNS_11char_traitsIcEENS_9allocatorIcEEEEP6ClientEENS_19__map_value_compareIS7_SA_NS_4lessIS7_EELb1EEENS5_ISA_EEE13__lower_boundIS7_EENS_15__tree_iteratorISA_PNS_11__tree_nodeISA_PvEElEERKT_SM_PNS_15__tree_end_nodeIPNS_16__tree_node_baseISK_EEEE, symObjAddr: 0x86B8, symBinAddr: 0x10002AE74, symSize: 0xA4 }
  - { offsetInCU: 0xBFF2, offset: 0x5CE0E, size: 0x8, addend: 0x0, symName: __ZNKSt3__115__tree_iteratorINS_12__value_typeINS_12basic_stringIcNS_11char_traitsIcEENS_9allocatorIcEEEEP6ClientEEPNS_11__tree_nodeISA_PvEElEdeB8ue170006Ev, symObjAddr: 0x875C, symBinAddr: 0x10002AF18, symSize: 0x28 }
  - { offsetInCU: 0xC017, offset: 0x5CE33, size: 0x8, addend: 0x0, symName: __ZNKSt3__115__tree_iteratorINS_12__value_typeINS_12basic_stringIcNS_11char_traitsIcEENS_9allocatorIcEEEEP6ClientEEPNS_11__tree_nodeISA_PvEElE8__get_npB8ue170006Ev, symObjAddr: 0x8784, symBinAddr: 0x10002AF40, symSize: 0x18 }
  - { offsetInCU: 0xC03B, offset: 0x5CE57, size: 0x8, addend: 0x0, symName: __ZNKSt3__16__treeINS_12__value_typeINS_12basic_stringIcNS_11char_traitsIcEENS_9allocatorIcEEEEP6ClientEENS_19__map_value_compareIS7_SA_NS_4lessIS7_EELb1EEENS5_ISA_EEE4sizeB8ue170006Ev, symObjAddr: 0x879C, symBinAddr: 0x10002AF58, symSize: 0x28 }
  - { offsetInCU: 0xC05F, offset: 0x5CE7B, size: 0x8, addend: 0x0, symName: __ZNKSt3__117__compressed_pairImNS_19__map_value_compareINS_12basic_stringIcNS_11char_traitsIcEENS_9allocatorIcEEEENS_12__value_typeIS7_P6ClientEENS_4lessIS7_EELb1EEEE5firstB8ue170006Ev, symObjAddr: 0x87C4, symBinAddr: 0x10002AF80, symSize: 0x24 }
  - { offsetInCU: 0xC084, offset: 0x5CEA0, size: 0x8, addend: 0x0, symName: __ZNSt3__114pointer_traitsIPNS_4pairIKNS_12basic_stringIcNS_11char_traitsIcEENS_9allocatorIcEEEEP6ClientEEE10pointer_toB8ue170006ERSB_, symObjAddr: 0x9960, symBinAddr: 0x10002AFA4, symSize: 0x14 }
  - { offsetInCU: 0xC0A6, offset: 0x5CEC2, size: 0x8, addend: 0x0, symName: __ZNKSt3__115__tree_iteratorINS_12__value_typeINS_12basic_stringIcNS_11char_traitsIcEENS_9allocatorIcEEEEP6ClientEEPNS_11__tree_nodeISA_PvEElEptB8ue170006Ev, symObjAddr: 0x9974, symBinAddr: 0x10002AFB8, symSize: 0x2C }
  - { offsetInCU: 0xC0CB, offset: 0x5CEE7, size: 0x8, addend: 0x0, symName: __ZNSt3__114pointer_traitsIPNS_12__value_typeINS_12basic_stringIcNS_11char_traitsIcEENS_9allocatorIcEEEEP6ClientEEE10pointer_toB8ue170006ERSA_, symObjAddr: 0x99A0, symBinAddr: 0x10002AFE4, symSize: 0x14 }
  - { offsetInCU: 0xC0ED, offset: 0x5CF09, size: 0x8, addend: 0x0, symName: __ZNSt3__112basic_stringIcNS_11char_traitsIcEENS_9allocatorIcEEE6appendB8ue170006ERKS5_, symObjAddr: 0x99B4, symBinAddr: 0x10002AFF8, symSize: 0x4C }
  - { offsetInCU: 0xC121, offset: 0x5CF3D, size: 0x8, addend: 0x0, symName: __ZNSt3__16__treeINS_12__value_typeINS_12basic_stringIcNS_11char_traitsIcEENS_9allocatorIcEEEEP6ClientEENS_19__map_value_compareIS7_SA_NS_4lessIS7_EELb1EEENS5_ISA_EEE14__erase_uniqueIS7_EEmRKT_, symObjAddr: 0x9D40, symBinAddr: 0x10002B044, symSize: 0xA0 }
  - { offsetInCU: 0xC170, offset: 0x5CF8C, size: 0x8, addend: 0x0, symName: __ZNSt3__16__treeINS_12__value_typeINS_12basic_stringIcNS_11char_traitsIcEENS_9allocatorIcEEEEP6ClientEENS_19__map_value_compareIS7_SA_NS_4lessIS7_EELb1EEENS5_ISA_EEE5eraseENS_21__tree_const_iteratorISA_PNS_11__tree_nodeISA_PvEElEE, symObjAddr: 0x9DE0, symBinAddr: 0x10002B0E4, symSize: 0x98 }
  - { offsetInCU: 0xC1D6, offset: 0x5CFF2, size: 0x8, addend: 0x0, symName: __ZNSt3__16__treeINS_12__value_typeINS_12basic_stringIcNS_11char_traitsIcEENS_9allocatorIcEEEEP6ClientEENS_19__map_value_compareIS7_SA_NS_4lessIS7_EELb1EEENS5_ISA_EEE21__remove_node_pointerEPNS_11__tree_nodeISA_PvEE, symObjAddr: 0x9EC4, symBinAddr: 0x10002B17C, symSize: 0xAC }
  - { offsetInCU: 0xC21C, offset: 0x5D038, size: 0x8, addend: 0x0, symName: __ZNSt3__13mapINS_12basic_stringIcNS_11char_traitsIcEENS_9allocatorIcEEEEP6ClientNS_4lessIS6_EENS4_INS_4pairIKS6_S8_EEEEE25__construct_node_with_keyERSC_, symObjAddr: 0xA770, symBinAddr: 0x10002B228, symSize: 0x144 }
  - { offsetInCU: 0xC272, offset: 0x5D08E, size: 0x8, addend: 0x0, symName: __ZNKSt3__110unique_ptrINS_11__tree_nodeINS_12__value_typeINS_12basic_stringIcNS_11char_traitsIcEENS_9allocatorIcEEEEP6ClientEEPvEENS_21__map_node_destructorINS6_ISD_EEEEE3getB8ue170006Ev, symObjAddr: 0xA8B4, symBinAddr: 0x10002B36C, symSize: 0x28 }
  - { offsetInCU: 0xC296, offset: 0x5D0B2, size: 0x8, addend: 0x0, symName: __ZNSt3__110unique_ptrINS_11__tree_nodeINS_12__value_typeINS_12basic_stringIcNS_11char_traitsIcEENS_9allocatorIcEEEEP6ClientEEPvEENS_21__map_node_destructorINS6_ISD_EEEEE7releaseB8ue170006Ev, symObjAddr: 0xA8DC, symBinAddr: 0x10002B394, symSize: 0x44 }
  - { offsetInCU: 0xC2CA, offset: 0x5D0E6, size: 0x8, addend: 0x0, symName: __ZNSt3__110unique_ptrINS_11__tree_nodeINS_12__value_typeINS_12basic_stringIcNS_11char_traitsIcEENS_9allocatorIcEEEEP6ClientEEPvEENS_21__map_node_destructorINS6_ISD_EEEEED1B8ue170006Ev, symObjAddr: 0xA920, symBinAddr: 0x10002B3D8, symSize: 0x2C }
  - { offsetInCU: 0xC2F3, offset: 0x5D10F, size: 0x8, addend: 0x0, symName: __ZNSt3__121__map_node_destructorINS_9allocatorINS_11__tree_nodeINS_12__value_typeINS_12basic_stringIcNS_11char_traitsIcEENS1_IcEEEEP6ClientEEPvEEEEEC1B8ue170006ERSE_, symObjAddr: 0xA94C, symBinAddr: 0x10002B404, symSize: 0x34 }
  - { offsetInCU: 0xC330, offset: 0x5D14C, size: 0x8, addend: 0x0, symName: __ZNSt3__110unique_ptrINS_11__tree_nodeINS_12__value_typeINS_12basic_stringIcNS_11char_traitsIcEENS_9allocatorIcEEEEP6ClientEEPvEENS_21__map_node_destructorINS6_ISD_EEEEEC1B8ue170006ILb1EvEEPSD_NS_16__dependent_typeINS_27__unique_ptr_deleter_sfinaeISG_EEXT_EE20__good_rval_ref_typeE, symObjAddr: 0xA980, symBinAddr: 0x10002B438, symSize: 0x3C }
  - { offsetInCU: 0xC381, offset: 0x5D19D, size: 0x8, addend: 0x0, symName: __ZNSt3__116allocator_traitsINS_9allocatorINS_11__tree_nodeINS_12__value_typeINS_12basic_stringIcNS_11char_traitsIcEENS1_IcEEEEP6ClientEEPvEEEEE9constructB8ue170006IKS8_JRSH_EvEEvRSE_PT_DpOT0_, symObjAddr: 0xA9BC, symBinAddr: 0x10002B474, symSize: 0x34 }
  - { offsetInCU: 0xC3D7, offset: 0x5D1F3, size: 0x8, addend: 0x0, symName: __ZNKSt3__110unique_ptrINS_11__tree_nodeINS_12__value_typeINS_12basic_stringIcNS_11char_traitsIcEENS_9allocatorIcEEEEP6ClientEEPvEENS_21__map_node_destructorINS6_ISD_EEEEEptB8ue170006Ev, symObjAddr: 0xA9F0, symBinAddr: 0x10002B4A8, symSize: 0x28 }
  - { offsetInCU: 0xC3FB, offset: 0x5D217, size: 0x8, addend: 0x0, symName: __ZNSt3__110unique_ptrINS_11__tree_nodeINS_12__value_typeINS_12basic_stringIcNS_11char_traitsIcEENS_9allocatorIcEEEEP6ClientEEPvEENS_21__map_node_destructorINS6_ISD_EEEEE11get_deleterB8ue170006Ev, symObjAddr: 0xAA18, symBinAddr: 0x10002B4D0, symSize: 0x24 }
  - { offsetInCU: 0xC425, offset: 0x5D241, size: 0x8, addend: 0x0, symName: __ZNSt3__116allocator_traitsINS_9allocatorINS_11__tree_nodeINS_12__value_typeINS_12basic_stringIcNS_11char_traitsIcEENS1_IcEEEEP6ClientEEPvEEEEE9constructB8ue170006ISA_JEvEEvRSE_PT_DpOT0_, symObjAddr: 0xAA3C, symBinAddr: 0x10002B4F4, symSize: 0x2C }
  - { offsetInCU: 0xC467, offset: 0x5D283, size: 0x8, addend: 0x0, symName: __ZNSt3__121__map_node_destructorINS_9allocatorINS_11__tree_nodeINS_12__value_typeINS_12basic_stringIcNS_11char_traitsIcEENS1_IcEEEEP6ClientEEPvEEEEEC2B8ue170006ERSE_, symObjAddr: 0xAA68, symBinAddr: 0x10002B520, symSize: 0x28 }
  - { offsetInCU: 0xC49E, offset: 0x5D2BA, size: 0x8, addend: 0x0, symName: __ZNSt3__110unique_ptrINS_11__tree_nodeINS_12__value_typeINS_12basic_stringIcNS_11char_traitsIcEENS_9allocatorIcEEEEP6ClientEEPvEENS_21__map_node_destructorINS6_ISD_EEEEEC2B8ue170006ILb1EvEEPSD_NS_16__dependent_typeINS_27__unique_ptr_deleter_sfinaeISG_EEXT_EE20__good_rval_ref_typeE, symObjAddr: 0xAA90, symBinAddr: 0x10002B548, symSize: 0x5C }
  - { offsetInCU: 0xC4EE, offset: 0x5D30A, size: 0x8, addend: 0x0, symName: __ZNSt3__117__compressed_pairIPNS_11__tree_nodeINS_12__value_typeINS_12basic_stringIcNS_11char_traitsIcEENS_9allocatorIcEEEEP6ClientEEPvEENS_21__map_node_destructorINS6_ISD_EEEEEC1B8ue170006IRSE_SH_EEOT_OT0_, symObjAddr: 0xAAEC, symBinAddr: 0x10002B5A4, symSize: 0x3C }
  - { offsetInCU: 0xC545, offset: 0x5D361, size: 0x8, addend: 0x0, symName: __ZNSt3__117__compressed_pairIPNS_11__tree_nodeINS_12__value_typeINS_12basic_stringIcNS_11char_traitsIcEENS_9allocatorIcEEEEP6ClientEEPvEENS_21__map_node_destructorINS6_ISD_EEEEEC2B8ue170006IRSE_SH_EEOT_OT0_, symObjAddr: 0xAB28, symBinAddr: 0x10002B5E0, symSize: 0x48 }
  - { offsetInCU: 0xC59D, offset: 0x5D3B9, size: 0x8, addend: 0x0, symName: __ZNSt3__122__compressed_pair_elemINS_21__map_node_destructorINS_9allocatorINS_11__tree_nodeINS_12__value_typeINS_12basic_stringIcNS_11char_traitsIcEENS2_IcEEEEP6ClientEEPvEEEEEELi1ELb0EEC2B8ue170006ISG_vEEOT_, symObjAddr: 0xAB70, symBinAddr: 0x10002B628, symSize: 0x24 }
  - { offsetInCU: 0xC5DD, offset: 0x5D3F9, size: 0x8, addend: 0x0, symName: __ZNSt3__19allocatorINS_11__tree_nodeINS_12__value_typeINS_12basic_stringIcNS_11char_traitsIcEENS0_IcEEEEP6ClientEEPvEEE9constructB8ue170006IKS7_JRSF_EEEvPT_DpOT0_, symObjAddr: 0xAB94, symBinAddr: 0x10002B64C, symSize: 0x30 }
  - { offsetInCU: 0xC631, offset: 0x5D44D, size: 0x8, addend: 0x0, symName: __ZNKSt3__117__compressed_pairIPNS_11__tree_nodeINS_12__value_typeINS_12basic_stringIcNS_11char_traitsIcEENS_9allocatorIcEEEEP6ClientEEPvEENS_21__map_node_destructorINS6_ISD_EEEEE5firstB8ue170006Ev, symObjAddr: 0xABC4, symBinAddr: 0x10002B67C, symSize: 0x24 }
  - { offsetInCU: 0xC655, offset: 0x5D471, size: 0x8, addend: 0x0, symName: __ZNSt3__117__compressed_pairIPNS_11__tree_nodeINS_12__value_typeINS_12basic_stringIcNS_11char_traitsIcEENS_9allocatorIcEEEEP6ClientEEPvEENS_21__map_node_destructorINS6_ISD_EEEEE6secondB8ue170006Ev, symObjAddr: 0xABE8, symBinAddr: 0x10002B6A0, symSize: 0x28 }
  - { offsetInCU: 0xC67A, offset: 0x5D496, size: 0x8, addend: 0x0, symName: __ZNSt3__122__compressed_pair_elemINS_21__map_node_destructorINS_9allocatorINS_11__tree_nodeINS_12__value_typeINS_12basic_stringIcNS_11char_traitsIcEENS2_IcEEEEP6ClientEEPvEEEEEELi1ELb0EE5__getB8ue170006Ev, symObjAddr: 0xAC10, symBinAddr: 0x10002B6C8, symSize: 0x14 }
  - { offsetInCU: 0xC69F, offset: 0x5D4BB, size: 0x8, addend: 0x0, symName: __ZNSt3__19allocatorINS_11__tree_nodeINS_12__value_typeINS_12basic_stringIcNS_11char_traitsIcEENS0_IcEEEEP6ClientEEPvEEE9constructB8ue170006IS9_JEEEvPT_DpOT0_, symObjAddr: 0xAC24, symBinAddr: 0x10002B6DC, symSize: 0x1C }
  - { offsetInCU: 0xC6DF, offset: 0x5D4FB, size: 0x8, addend: 0x0, symName: __ZNSt3__117__compressed_pairIPNS_11__tree_nodeINS_12__value_typeINS_12basic_stringIcNS_11char_traitsIcEENS_9allocatorIcEEEEP6ClientEEPvEENS_21__map_node_destructorINS6_ISD_EEEEE5firstB8ue170006Ev, symObjAddr: 0xAC40, symBinAddr: 0x10002B6F8, symSize: 0x24 }
  - { offsetInCU: 0xC703, offset: 0x5D51F, size: 0x8, addend: 0x0, symName: __ZNSt3__110unique_ptrINS_11__tree_nodeINS_12__value_typeINS_12basic_stringIcNS_11char_traitsIcEENS_9allocatorIcEEEEP6ClientEEPvEENS_21__map_node_destructorINS6_ISD_EEEEED2B8ue170006Ev, symObjAddr: 0xAC64, symBinAddr: 0x10002B71C, symSize: 0x30 }
  - { offsetInCU: 0xC72C, offset: 0x5D548, size: 0x8, addend: 0x0, symName: __ZNSt3__110unique_ptrINS_11__tree_nodeINS_12__value_typeINS_12basic_stringIcNS_11char_traitsIcEENS_9allocatorIcEEEEP6ClientEEPvEENS_21__map_node_destructorINS6_ISD_EEEEE5resetB8ue170006EPSD_, symObjAddr: 0xAC94, symBinAddr: 0x10002B74C, symSize: 0x78 }
  - { offsetInCU: 0xC76F, offset: 0x5D58B, size: 0x8, addend: 0x0, symName: __ZNSt3__121__map_node_destructorINS_9allocatorINS_11__tree_nodeINS_12__value_typeINS_12basic_stringIcNS_11char_traitsIcEENS1_IcEEEEP6ClientEEPvEEEEEclB8ue170006EPSD_, symObjAddr: 0xAD0C, symBinAddr: 0x10002B7C4, symSize: 0xE4 }
  - { offsetInCU: 0xC7A3, offset: 0x5D5BF, size: 0x8, addend: 0x0, symName: __ZNSt3__116allocator_traitsINS_9allocatorINS_11__tree_nodeINS_12__value_typeINS_12basic_stringIcNS_11char_traitsIcEENS1_IcEEEEP6ClientEEPvEEEEE7destroyB8ue170006ISA_vvEEvRSE_PT_, symObjAddr: 0xADF0, symBinAddr: 0x10002B8A8, symSize: 0x14 }
  - { offsetInCU: 0xC7DE, offset: 0x5D5FA, size: 0x8, addend: 0x0, symName: __ZNSt3__116allocator_traitsINS_9allocatorINS_11__tree_nodeINS_12__value_typeINS_12basic_stringIcNS_11char_traitsIcEENS1_IcEEEEP6ClientEEPvEEEEE7destroyB8ue170006IKS8_vvEEvRSE_PT_, symObjAddr: 0xAE04, symBinAddr: 0x10002B8BC, symSize: 0x28 }
  - { offsetInCU: 0x9711, offset: 0x66DC2, size: 0x8, addend: 0x0, symName: __ZN7Channel17setInviteOnlyModeER6Clientb, symObjAddr: 0x0, symBinAddr: 0x10002B8E4, symSize: 0x56C }
  - { offsetInCU: 0x9759, offset: 0x66E0A, size: 0x8, addend: 0x0, symName: __ZN7Channel21setPasswordNeededTrueER6ClientRNSt3__112basic_stringIcNS2_11char_traitsIcEENS2_9allocatorIcEEEE, symObjAddr: 0x7FC, symBinAddr: 0x10002BE50, symSize: 0x2D0 }
  - { offsetInCU: 0x979C, offset: 0x66E4D, size: 0x8, addend: 0x0, symName: __ZN7Channel22setPasswordNeededFalseER6Client, symObjAddr: 0xACC, symBinAddr: 0x10002C120, symSize: 0x2BC }
  - { offsetInCU: 0x97D1, offset: 0x66E82, size: 0x8, addend: 0x0, symName: __ZN7Channel16setPrivilageModeEP6Clientb, symObjAddr: 0xD88, symBinAddr: 0x10002C3DC, symSize: 0x9C8 }
  - { offsetInCU: 0x9814, offset: 0x66EC5, size: 0x8, addend: 0x0, symName: __ZN7Channel12setTopicModeER6Clientb, symObjAddr: 0x1A80, symBinAddr: 0x10002CDA4, symSize: 0x56C }
  - { offsetInCU: 0x9857, offset: 0x66F08, size: 0x8, addend: 0x0, symName: __ZN7Channel12setUserLimitER6Clienti, symObjAddr: 0x1FEC, symBinAddr: 0x10002D310, symSize: 0x55C }
...
